(lp0
S'/c/en/us/products/collateral/switches/blade-switches-dell/eos-eol-notice-c51-733652.html'
p1
aS'/c/en/us/products/collateral/switches/catalyst-blade-switch-3030-dell/prod_end-of-life_notice0900aecd8071eefd.html'
p2
aS'/c/en/us/products/collateral/switches/catalyst-blade-switch-3030-dell/prod_end-of-life_notice0900aecd8071eedb.html'
p3
aS'/c/en/us/products/collateral/switches/blade-switches-hp/eos-eol-notice-c51-733651.html'
p4
aS'/c/en/us/products/collateral/switches/nexus-4000-series-switches/eos-eol-notice-c51-733205.html'
p5
aS'/c/en/us/products/collateral/switches/blade-switches-hp/eos-eol-notice-c51-733650.html'
p6
aS'/c/en/us/products/collateral/switches/catalyst-4500-series-switches/eos-eol-notice-c51-737203.html'
p7
aS'/c/en/us/products/collateral/switches/catalyst-4500-series-switches/eos-eol-notice-c51-737186.html'
p8
aS'/c/en/us/products/collateral/switches/catalyst-4500-series-switches/eos-eol-notice-c51-737185.html'
p9
aS'/c/en/us/products/collateral/switches/catalyst-4500-series-switches/eos-eol-notice-c51-736507.html'
p10
aS'/c/en/us/products/collateral/switches/catalyst-4500-series-switches/eos-eol-notice-c51-736474.html'
p11
aS'/c/en/us/products/collateral/switches/catalyst-4000-series-switches/prod_end-of-life_notice09186a00801eb0ae.html'
p12
aS'/c/en/us/products/collateral/switches/catalyst-4000-series-switches/prod_end-of-life_notice0900aecd80324aee.html'
p13
aS'/c/en/us/products/collateral/switches/catalyst-4500-series-switches/prod_end-of-life_notice0900aecd80199950.html'
p14
aS'/c/en/us/products/collateral/switches/catalyst-4500-series-switches/eos-eol-notice-c51-732500.html'
p15
aS'/c/en/us/products/collateral/switches/catalyst-4500-series-switches/eos-eol-notice-c51-730044.html'
p16
aS'/c/en/us/products/collateral/switches/catalyst-4500-series-switches/eos-eol-notice-c51-731750.html'
p17
aS'/c/en/us/products/collateral/switches/catalyst-4500-series-switches/prod_end-of-life_notice0900aecd8065b070.html'
p18
aS'/c/en/us/products/collateral/switches/catalyst-4500-series-switches/prod_end-of-life_notice0900aecd804be204.html'
p19
aS'/c/en/us/products/collateral/switches/catalyst-4500-series-switches/prod_end-of-life_notice0900aecd804ff027.html'
p20
aS'/c/en/us/products/collateral/switches/catalyst-4500-series-switches/prod_end-of-life_notice0900aecd802f8b74.html'
p21
aS'/c/en/us/products/collateral/switches/catalyst-4500-series-switches/prod_end-of-life_notice0900aecd8016fb77.html'
p22
aS'/c/en/us/products/collateral/switches/catalyst-4500-series-switches/prod_end-of-life_notice0900aecd80701579.html'
p23
aS'/c/en/us/products/collateral/switches/catalyst-4500-series-switches/prod_end-of-life_notice0900aecd80256100.html'
p24
aS'/c/en/us/products/collateral/switches/catalyst-4500-series-switches/end_of_life_notice_c51-551230.html'
p25
aS'/c/en/us/products/collateral/switches/catalyst-4500-series-switches/end_of_life_notice_c51-528164.html'
p26
aS'/c/en/us/products/collateral/switches/catalyst-6500-series-switches/eos-eol-notice-c51-730045.html'
p27
aS'/c/en/us/products/collateral/switches/catalyst-6500-series-switches/eos-eol-notice-c51-730031.html'
p28
aS'/c/en/us/products/collateral/switches/catalyst-6500-series-switches/eos-eol-notice-c51-730030.html'
p29
aS'/c/en/us/products/collateral/switches/catalyst-4500-series-switches/eos-eol-notice-c51-737203-fr.html'
p30
aS'/c/en/us/products/collateral/switches/catalyst-4500-series-switches/eos-eol-notice-c51-737186-fr.html'
p31
aS'/c/en/us/products/collateral/switches/catalyst-4500-series-switches/eos-eol-notice-c51-737185-fr.html'
p32
aS'/c/en/us/products/collateral/switches/catalyst-4500-series-switches/eos-eol-notice-c51-736507-fr.html'
p33
aS'/c/en/us/products/collateral/switches/catalyst-4500-series-switches/eos-eol-notice-c51-736474-fr.html'
p34
aS'/c/en/us/products/collateral/routers/asr-1000-series-aggregation-services-routers/eos-eol-notice-c51-737081.html'
p35
aS'/c/en/us/products/collateral/switches/catalyst-3850-series-switches/eos-eol-notice-c51-736680.html'
p36
aS'/c/en/us/products/collateral/switches/catalyst-3850-series-switches/eos-eol-notice-c51-736492.html'
p37
aS'/c/en/us/products/collateral/routers/asr-1000-series-aggregation-services-routers/eos-eol-notice-c51-737081-fr.html'
p38
aS'/c/en/us/products/collateral/switches/catalyst-3850-series-switches/eos-eol-notice-c51-736680-fr.html'
p39
aS'/c/en/us/products/collateral/switches/catalyst-3850-series-switches/eos-eol-notice-c51-736492-fr.html'
p40
aS'/c/en/us/products/collateral/switches/catalyst-3750-series-switches/eos-eol-notice-c51-736302.html'
p41
aS'/c/en/us/products/collateral/switches/catalyst-3750-series-switches/eos-eol-notice-c51-736302-fr.html'
p42
aS'/c/en/us/products/collateral/switches/catalyst-3750-series-switches/eos-eol-notice-c51-730227.html'
p43
aS'/c/en/us/products/collateral/switches/catalyst-3750-series-switches/eos-eol-notice-c51-731425.html'
p44
aS'/c/en/us/products/collateral/switches/catalyst-3750-series-switches/end_of_life_notice_c51-574778.html'
p45
aS'/c/en/us/products/collateral/switches/catalyst-3750-series-switches/end_of_life_notice_c51-624769.html'
p46
aS'/c/en/us/products/collateral/switches/catalyst-3750-series-switches/prod_end-of-life_notice0900aecd806228c3.html'
p47
aS'/c/en/us/products/collateral/switches/catalyst-4500-series-switches/prod_end-of-life_notice0900aecd8016fb77.html'
p48
aS'/c/en/us/products/collateral/switches/catalyst-3750-x-series-switches/eos-eol-notice-c51-737191.html'
p49
aS'/c/en/us/products/collateral/switches/catalyst-3560-x-series-switches/eos-eol-notice-c51-736139.html'
p50
aS'/c/en/us/products/collateral/switches/catalyst-6500-series-switches/end_of_life_notice_c51-729195.html'
p51
aS'/c/en/us/products/collateral/switches/catalyst-3750-x-series-switches/eos-eol-notice-c51-737191-fr.html'
p52
aS'/c/en/us/products/collateral/switches/catalyst-3560-x-series-switches/eos-eol-notice-c51-736139-fr.html'
p53
aS'/c/en/us/products/collateral/switches/catalyst-3750-series-switches/eos-eol-notice-c51-730227.html'
p54
aS'/c/en/us/products/collateral/switches/catalyst-3750-series-switches/end_of_life_notice_c51-574778.html'
p55
aS'/c/en/us/products/collateral/switches/catalyst-3750-x-series-switches/eos-eol-notice-c51-737191.html'
p56
aS'/c/en/us/products/collateral/switches/catalyst-3560-x-series-switches/eos-eol-notice-c51-736139.html'
p57
aS'/c/en/us/products/collateral/switches/catalyst-6500-series-switches/end_of_life_notice_c51-729195.html'
p58
aS'/c/en/us/products/collateral/switches/catalyst-3750-x-series-switches/eos-eol-notice-c51-737191-fr.html'
p59
aS'/c/en/us/products/collateral/switches/catalyst-3560-x-series-switches/eos-eol-notice-c51-736139-fr.html'
p60
aS'/c/en/us/products/collateral/switches/catalyst-2960-series-switches/eos-eol-notice-c51-733348.html'
p61
aS'/c/en/us/products/collateral/switches/edge-300-series/eos-eol-notice-c51-733204.html'
p62
aS'/c/en/us/products/collateral/switches/redundant-power-systems/prod_end-of-life_notice0900aecd8062287a.html'
p63
aS'/c/en/us/products/collateral/switches/catalyst-2960-x-series-switches/eos-eol-notice-c51-736509.html'
p64
aS'/c/en/us/products/collateral/switches/catalyst-2960-x-series-switches/eos-eol-notice-c51-736509-fr.html'
p65
aS'/c/en/us/products/collateral/switches/catalyst-3560-c-series-switches/eos-eol-notice-c51-736180.html'
p66
aS'/c/en/us/products/collateral/switches/catalyst-3560-c-series-switches/eos-eol-notice-c51-736180-fr.html'
p67
aS'/c/en/us/products/collateral/switches/catalyst-6500-series-switches/eos-eol-notice-c51-737192.html'
p68
aS'/c/en/us/products/collateral/switches/catalyst-6500-series-switches/eos-eol-notice-c51-735926.html'
p69
aS'/c/en/us/products/collateral/routers/7600-series-routers/prod_end-of-life_notice0900aecd803f00c3.html'
p70
aS'/c/en/us/products/collateral/switches/mgx-8800-series-switches/end_of_life_notice_c51-729557.html'
p71
aS'/c/en/us/products/collateral/switches/catalyst-6500-series-switches/eos-eol-notice-c51-734057.html'
p72
aS'/c/en/us/products/collateral/switches/catalyst-6500-series-switches/eos-eol-notice-c51-733297.html'
p73
aS'/c/en/us/products/collateral/switches/catalyst-6500-series-switches/prod_end-of-life_notice0900aecd8035ece4.html'
p74
aS'/c/en/us/products/collateral/switches/catalyst-6500-series-switches/prod_end-of-life_notice09186a008023401e.html'
p75
aS'/c/en/us/products/collateral/switches/catalyst-6500-series-switches/prod_end-of-life_notice0900aecd80699e1a.html'
p76
aS'/c/en/us/products/collateral/switches/catalyst-6500-series-switches/prod_end-of-life_notice0900aecd80699ddb.html'
p77
aS'/c/en/us/products/collateral/switches/catalyst-6500-series-switches/prod_end-of-life_notice0900aecd80565c60.html'
p78
aS'/c/en/us/products/collateral/switches/catalyst-6500-series-switches/prod_end-of-life_notice0900aecd8054d461.html'
p79
aS'/c/en/us/products/collateral/switches/catalyst-6500-series-switches/prod_end-of-life_notice0900aecd804e1180.html'
p80
aS'/c/en/us/products/collateral/switches/catalyst-6500-series-switches/prod_end-of-life_notice0900aecd8046e4ae.html'
p81
aS'/c/en/us/products/collateral/switches/catalyst-6500-series-switches/prod_end-of-life_notice0900aecd80423d311.html'
p82
aS'/c/en/us/products/collateral/switches/catalyst-6500-series-switches/prod_end-of-life_notice0900aecd803e378d.html'
p83
aS'/c/en/us/products/collateral/switches/catalyst-6500-series-switches/prod_end-of-life_notice0900aecd800fd91f.html'
p84
aS'/c/en/us/products/collateral/switches/catalyst-6500-series-switches/prod_end-of-life_notice0900aecd801a8c6e.html'
p85
aS'/c/en/us/products/collateral/switches/catalyst-6500-series-switches/prod_end-of-life_notice0900aecd806d9953.html'
p86
aS'/c/en/us/products/collateral/switches/catalyst-6500-series-switches/prod_end-of-life_notice0900aecd806b9e49.html'
p87
aS'/c/en/us/products/collateral/switches/catalyst-6500-series-switches/prod_end-of-life_notice0900aecd8069af87.html'
p88
aS'/c/en/us/products/collateral/switches/catalyst-6500-series-switches/prod_end-of-life_notice0900aecd8067a132.html'
p89
aS'/c/en/us/products/collateral/switches/catalyst-6500-series-switches/prod_end-of-life_notice0900aecd80646c15.html'
p90
aS'/c/en/us/products/collateral/switches/catalyst-6500-series-switches/prod_end-of-life_notice0900aecd805f990d.html'
p91
aS'/c/en/us/products/collateral/switches/catalyst-6500-series-switches/prod_end-of-life_notice0900aecd805eaa8d.html'
p92
aS'/c/en/us/products/collateral/switches/catalyst-6500-series-switches/prod_end-of-life_notice0900aecd8042428a.html'
p93
aS'/c/en/us/products/collateral/switches/catalyst-6500-series-switches/prod_end-of-life_notice0900aecd8039f961.html'
p94
aS'/c/en/us/products/collateral/switches/catalyst-6500-series-switches/prod_end-of-life_notice0900aecd802e87bb.html'
p95
aS'/c/en/us/products/collateral/switches/catalyst-6500-series-switches/prod_end-of-life_notice0900aecd802c2f7b.html'
p96
aS'/c/en/us/products/collateral/switches/catalyst-6500-series-switches/prod_end-of-life_notice0900aecd8017a5d1.html'
p97
aS'/c/en/us/products/collateral/switches/catalyst-4500-series-switches/prod_end-of-life_notice0900aecd8016fb77.html'
p98
aS'/c/en/us/products/collateral/switches/catalyst-6500-series-switches/eos-eol-notice-c51-730610.html'
p99
aS'/c/en/us/products/collateral/switches/mgx-8800-series-switches/eos-eol-notice-c51-730610.html'
p100
aS'/c/en/us/products/collateral/switches/catalyst-6500-series-switches/prod_end-of-life_notice0900aecd80423d31.html'
p101
aS'/c/en/us/products/collateral/switches/mgx-8800-series-switches/end-of-life-notice-c51-729742.html'
p102
aS'/c/en/us/products/collateral/switches/mgx-8800-series-switches/end_of_life_notice_c51-729149.html'
p103
aS'/c/en/us/products/collateral/switches/catalyst-6500-series-switches/prod_end-of-life_notice0900aecd80646c9c.html'
p104
aS'/c/en/us/products/collateral/interfaces-modules/catalyst-6500-series-network-analysis-module-nam-3/eos-eol-notice-c51-731695.html'
p105
aS'/c/en/us/products/collateral/switches/catalyst-6500-series-switches/eos-eol-notice-c51-737192-fr.html'
p106
aS'/c/en/us/products/collateral/switches/catalyst-6500-series-switches/eos-eol-notice-c51-735926-fr.html'
p107
aS'/c/en/us/products/collateral/switches/catalyst-4900-series-switches/eos-eol-notice-c51-736182.html'
p108
aS'/c/en/us/products/collateral/switches/catalyst-4900-series-switches/eos-eol-notice-c51-732334.html'
p109
aS'/c/en/us/products/collateral/switches/catalyst-4900-series-switches/eos-eol-notice-c51-736182-fr.html'
p110
aS'/c/en/us/products/collateral/switches/catalyst-4500-series-switches/eos-eol-notice-c51-737203.html'
p111
aS'/c/en/us/products/collateral/switches/catalyst-4500-series-switches/eos-eol-notice-c51-737186.html'
p112
aS'/c/en/us/products/collateral/switches/catalyst-4500-series-switches/eos-eol-notice-c51-737185.html'
p113
aS'/c/en/us/products/collateral/switches/catalyst-4500-series-switches/eos-eol-notice-c51-736507.html'
p114
aS'/c/en/us/products/collateral/switches/catalyst-4500-series-switches/eos-eol-notice-c51-736474.html'
p115
aS'/c/en/us/products/collateral/switches/catalyst-4000-series-switches/prod_end-of-life_notice09186a00801eb0ae.html'
p116
aS'/c/en/us/products/collateral/switches/catalyst-4000-series-switches/prod_end-of-life_notice0900aecd80324aee.html'
p117
aS'/c/en/us/products/collateral/switches/catalyst-4500-series-switches/prod_end-of-life_notice0900aecd80199950.html'
p118
aS'/c/en/us/products/collateral/switches/catalyst-4500-series-switches/eos-eol-notice-c51-732500.html'
p119
aS'/c/en/us/products/collateral/switches/catalyst-4500-series-switches/eos-eol-notice-c51-730044.html'
p120
aS'/c/en/us/products/collateral/switches/catalyst-4500-series-switches/eos-eol-notice-c51-731750.html'
p121
aS'/c/en/us/products/collateral/switches/catalyst-4500-series-switches/prod_end-of-life_notice0900aecd8065b070.html'
p122
aS'/c/en/us/products/collateral/switches/catalyst-4500-series-switches/prod_end-of-life_notice0900aecd804be204.html'
p123
aS'/c/en/us/products/collateral/switches/catalyst-4500-series-switches/prod_end-of-life_notice0900aecd804ff027.html'
p124
aS'/c/en/us/products/collateral/switches/catalyst-4500-series-switches/prod_end-of-life_notice0900aecd802f8b74.html'
p125
aS'/c/en/us/products/collateral/switches/catalyst-4500-series-switches/prod_end-of-life_notice0900aecd8016fb77.html'
p126
aS'/c/en/us/products/collateral/switches/catalyst-4500-series-switches/prod_end-of-life_notice0900aecd80701579.html'
p127
aS'/c/en/us/products/collateral/switches/catalyst-4500-series-switches/prod_end-of-life_notice0900aecd80256100.html'
p128
aS'/c/en/us/products/collateral/switches/catalyst-4500-series-switches/end_of_life_notice_c51-551230.html'
p129
aS'/c/en/us/products/collateral/switches/catalyst-4500-series-switches/end_of_life_notice_c51-528164.html'
p130
aS'/c/en/us/products/collateral/switches/catalyst-6500-series-switches/eos-eol-notice-c51-730045.html'
p131
aS'/c/en/us/products/collateral/switches/catalyst-6500-series-switches/eos-eol-notice-c51-730031.html'
p132
aS'/c/en/us/products/collateral/switches/catalyst-6500-series-switches/eos-eol-notice-c51-730030.html'
p133
aS'/c/en/us/products/collateral/switches/catalyst-4500-series-switches/eos-eol-notice-c51-737203-fr.html'
p134
aS'/c/en/us/products/collateral/switches/catalyst-4500-series-switches/eos-eol-notice-c51-737186-fr.html'
p135
aS'/c/en/us/products/collateral/switches/catalyst-4500-series-switches/eos-eol-notice-c51-737185-fr.html'
p136
aS'/c/en/us/products/collateral/switches/catalyst-4500-series-switches/eos-eol-notice-c51-736507-fr.html'
p137
aS'/c/en/us/products/collateral/switches/catalyst-4500-series-switches/eos-eol-notice-c51-736474-fr.html'
p138
aS'/c/en/us/products/collateral/switches/nexus-7000-series-switches/eos-eol-notice-c51-737194.html'
p139
aS'/c/en/us/products/collateral/switches/nexus-7000-series-switches/eos-eol-notice-c51-733847.html'
p140
aS'/c/en/us/products/collateral/switches/nexus-7000-series-switches/eos-eol-notice-c51-736157.html'
p141
aS'/c/en/us/products/collateral/switches/nexus-7000-series-switches/eos-eol-notice-c51-733434.html'
p142
aS'/c/en/us/products/collateral/switches/nexus-7000-series-switches/end_of_life_notice_c51-729278.html'
p143
aS'/c/en/us/products/collateral/switches/nexus-7000-series-switches/end_of_life_notice_c51-729281.html'
p144
aS'/c/en/us/products/collateral/switches/nexus-7000-series-switches/end_of_life_notice_c51-729279.html'
p145
aS'/c/en/us/products/collateral/switches/nexus-7000-series-switches/eos-eol-notice-c51-731703.html'
p146
aS'/c/en/us/products/collateral/switches/nexus-7000-series-switches/eos-eol-notice-c51-731702.html'
p147
aS'/c/en/us/products/collateral/switches/nexus-7000-series-switches/end_of_life_notice_c51-729282.html'
p148
aS'/c/en/us/products/collateral/switches/nexus-7000-series-switches/eos-eol-notice-c51-737194-fr.html'
p149
aS'/c/en/us/products/collateral/switches/nexus-7000-series-switches/eos-eol-notice-c51-736157-fr.html'
p150
aS'/c/en/us/products/collateral/switches/nexus-9000-series-switches/eos-eol-notice-c51-737197.html'
p151
aS'/c/en/us/products/collateral/switches/nexus-9000-series-switches/eos-eol-notice-c51-737027.html'
p152
aS'/c/en/us/products/collateral/switches/nexus-9000-series-switches/eos-eol-notice-c51-736141.html'
p153
aS'/c/en/us/products/collateral/switches/nexus-9000-series-switches/eos-eol-notice-c51-737197-fr.html'
p154
aS'/c/en/us/products/collateral/switches/nexus-9000-series-switches/eos-eol-notice-c51-737027-fr.html'
p155
aS'/c/en/us/products/collateral/switches/nexus-9000-series-switches/eos-eol-notice-c51-736141-fr.html'
p156
aS'/c/en/us/products/collateral/switches/nexus-7000-series-switches/eos-eol-notice-c51-737194.html'
p157
aS'/c/en/us/products/collateral/switches/nexus-7000-series-switches/eos-eol-notice-c51-733847.html'
p158
aS'/c/en/us/products/collateral/switches/nexus-7000-series-switches/eos-eol-notice-c51-736157.html'
p159
aS'/c/en/us/products/collateral/switches/nexus-7000-series-switches/eos-eol-notice-c51-733434.html'
p160
aS'/c/en/us/products/collateral/switches/nexus-7000-series-switches/end_of_life_notice_c51-729278.html'
p161
aS'/c/en/us/products/collateral/switches/nexus-7000-series-switches/end_of_life_notice_c51-729281.html'
p162
aS'/c/en/us/products/collateral/switches/nexus-7000-series-switches/end_of_life_notice_c51-729279.html'
p163
aS'/c/en/us/products/collateral/switches/nexus-7000-series-switches/eos-eol-notice-c51-731703.html'
p164
aS'/c/en/us/products/collateral/switches/nexus-7000-series-switches/eos-eol-notice-c51-731702.html'
p165
aS'/c/en/us/products/collateral/switches/nexus-7000-series-switches/end_of_life_notice_c51-729282.html'
p166
aS'/c/en/us/products/collateral/switches/nexus-7000-series-switches/eos-eol-notice-c51-737194-fr.html'
p167
aS'/c/en/us/products/collateral/switches/nexus-7000-series-switches/eos-eol-notice-c51-736157-fr.html'
p168
aS'/c/en/us/products/collateral/switches/nexus-6000-series-switches/eos-eol-notice-c51-737195.html'
p169
aS'/c/en/us/products/collateral/switches/nexus-6000-series-switches/eos-eol-notice-c51-735308.html'
p170
aS'/c/en/us/products/collateral/switches/nexus-6000-series-switches/eos-eol-notice-c51-734424.html'
p171
aS'/c/en/us/products/collateral/switches/nexus-6000-series-switches/eos-eol-notice-c51-737195-fr.html'
p172
aS'/c/en/us/products/collateral/switches/nexus-6000-series-switches/eos-eol-notice-c51-735308-fr.html'
p173
aS'/c/en/us/products/collateral/switches/nexus-5000-series-switches/eos-eol-notice-c51-734252.html'
p174
aS'/c/en/us/products/collateral/switches/nexus-5000-series-switches/eos-eol-notice-c51-737193.html'
p175
aS'/c/en/us/products/collateral/switches/nexus-5000-series-switches/eos-eol-notice-c51-733330.html'
p176
aS'/c/en/us/products/collateral/switches/nexus-5000-series-switches/eos-eol-notice-c51-733329.html'
p177
aS'/c/en/us/products/collateral/switches/nexus-5000-series-switches/eos-eol-notice-c51-731978.html'
p178
aS'/c/en/us/products/collateral/switches/nexus-5000-series-switches/eos-eol-notice-c51-731977.html'
p179
aS'/c/en/us/products/collateral/switches/nexus-5000-series-switches/eos-eol-notice-c51-737193-fr.html'
p180
aS'/c/en/us/products/collateral/switches/nexus-4000-series-switches/eos-eol-notice-c51-733205.html'
p181
aS'/c/en/us/products/collateral/switches/nexus-3000-series-switches/eos-eol-notice-c51-737142.html'
p182
aS'/c/en/us/products/collateral/switches/nexus-3000-series-switches/eos-eol-notice-c51-737069.html'
p183
aS'/c/en/us/products/collateral/switches/nexus-3000-series-switches/eos-eol-notice-c51-736390.html'
p184
aS'/c/en/us/products/collateral/switches/nexus-3000-series-switches/eos-eol-notice-c51-736391.html'
p185
aS'/c/en/us/products/collateral/switches/nexus-3000-series-switches/eos-eol-notice-c51-736140.html'
p186
aS'/c/en/us/products/collateral/switches/nexus-3000-series-switches/eos-eol-notice-c51-736142.html'
p187
aS'/c/en/us/products/collateral/switches/nexus-3000-series-switches/eos-eol-notice-c51-734491.html'
p188
aS'/c/en/us/products/collateral/switches/nexus-3000-series-switches/eos-eol-notice-c51-737142-fr.html'
p189
aS'/c/en/us/products/collateral/switches/nexus-3000-series-switches/eos-eol-notice-c51-737069-fr.html'
p190
aS'/c/en/us/products/collateral/switches/nexus-3000-series-switches/eos-eol-notice-c51-736390-fr.html'
p191
aS'/c/en/us/products/collateral/switches/nexus-3000-series-switches/eos-eol-notice-c51-736391-fr.html'
p192
aS'/c/en/us/products/collateral/switches/nexus-3000-series-switches/eos-eol-notice-c51-736140-fr.html'
p193
aS'/c/en/us/products/collateral/switches/nexus-3000-series-switches/eos-eol-notice-c51-736142-fr.html'
p194
aS'/c/en/us/products/collateral/switches/nexus-2000-series-fabric-extenders/eos-eol-notice-c51-736205.html'
p195
aS'/c/en/us/products/collateral/switches/nexus-2000-series-fabric-extenders/eos-eol-notice-c51-731673.html'
p196
aS'/c/en/us/products/collateral/switches/nexus-2000-series-fabric-extenders/eos-eol-notice-c51-736205-fr.html'
p197
aS'/c/en/us/products/collateral/cloud-systems-management/prime-data-center-network-manager/eos-eol-notice-c51-735794.html'
p198
aS'/c/en/us/products/collateral/cloud-systems-management/prime-data-center-network-manager/end_of_life_notice_c51-729551.html'
p199
aS'/c/en/us/products/collateral/cloud-systems-management/prime-data-center-network-manager/end_of_life_notice_c51-729550.html'
p200
aS'/c/en/us/products/collateral/cloud-systems-management/prime-data-center-network-manager/eos-eol-notice-c51-735794-fr.html'
p201
aS'/c/en/us/products/collateral/cloud-systems-management/fabric-manager/eos-eol-notice-c51-735793.html'
p202
aS'/c/en/us/products/collateral/cloud-systems-management/fabric-manager/eos-eol-notice-c51-735793-fr.html'
p203
aS'/c/en/us/products/collateral/switches/catalyst-6500-series-switches/eos-eol-notice-c51-737192.html'
p204
aS'/c/en/us/products/collateral/switches/catalyst-6500-series-switches/eos-eol-notice-c51-735926.html'
p205
aS'/c/en/us/products/collateral/routers/7600-series-routers/prod_end-of-life_notice0900aecd803f00c3.html'
p206
aS'/c/en/us/products/collateral/switches/mgx-8800-series-switches/end_of_life_notice_c51-729557.html'
p207
aS'/c/en/us/products/collateral/switches/catalyst-6500-series-switches/eos-eol-notice-c51-734057.html'
p208
aS'/c/en/us/products/collateral/switches/catalyst-6500-series-switches/eos-eol-notice-c51-733297.html'
p209
aS'/c/en/us/products/collateral/switches/catalyst-6500-series-switches/prod_end-of-life_notice0900aecd8035ece4.html'
p210
aS'/c/en/us/products/collateral/switches/catalyst-6500-series-switches/prod_end-of-life_notice09186a008023401e.html'
p211
aS'/c/en/us/products/collateral/switches/catalyst-6500-series-switches/prod_end-of-life_notice0900aecd80699e1a.html'
p212
aS'/c/en/us/products/collateral/switches/catalyst-6500-series-switches/prod_end-of-life_notice0900aecd80699ddb.html'
p213
aS'/c/en/us/products/collateral/switches/catalyst-6500-series-switches/prod_end-of-life_notice0900aecd80565c60.html'
p214
aS'/c/en/us/products/collateral/switches/catalyst-6500-series-switches/prod_end-of-life_notice0900aecd8054d461.html'
p215
aS'/c/en/us/products/collateral/switches/catalyst-6500-series-switches/prod_end-of-life_notice0900aecd804e1180.html'
p216
aS'/c/en/us/products/collateral/switches/catalyst-6500-series-switches/prod_end-of-life_notice0900aecd8046e4ae.html'
p217
aS'/c/en/us/products/collateral/switches/catalyst-6500-series-switches/prod_end-of-life_notice0900aecd80423d311.html'
p218
aS'/c/en/us/products/collateral/switches/catalyst-6500-series-switches/prod_end-of-life_notice0900aecd803e378d.html'
p219
aS'/c/en/us/products/collateral/switches/catalyst-6500-series-switches/prod_end-of-life_notice0900aecd800fd91f.html'
p220
aS'/c/en/us/products/collateral/switches/catalyst-6500-series-switches/prod_end-of-life_notice0900aecd801a8c6e.html'
p221
aS'/c/en/us/products/collateral/switches/catalyst-6500-series-switches/prod_end-of-life_notice0900aecd806d9953.html'
p222
aS'/c/en/us/products/collateral/switches/catalyst-6500-series-switches/prod_end-of-life_notice0900aecd806b9e49.html'
p223
aS'/c/en/us/products/collateral/switches/catalyst-6500-series-switches/prod_end-of-life_notice0900aecd8069af87.html'
p224
aS'/c/en/us/products/collateral/switches/catalyst-6500-series-switches/prod_end-of-life_notice0900aecd8067a132.html'
p225
aS'/c/en/us/products/collateral/switches/catalyst-6500-series-switches/prod_end-of-life_notice0900aecd80646c15.html'
p226
aS'/c/en/us/products/collateral/switches/catalyst-6500-series-switches/prod_end-of-life_notice0900aecd805f990d.html'
p227
aS'/c/en/us/products/collateral/switches/catalyst-6500-series-switches/prod_end-of-life_notice0900aecd805eaa8d.html'
p228
aS'/c/en/us/products/collateral/switches/catalyst-6500-series-switches/prod_end-of-life_notice0900aecd8042428a.html'
p229
aS'/c/en/us/products/collateral/switches/catalyst-6500-series-switches/prod_end-of-life_notice0900aecd8039f961.html'
p230
aS'/c/en/us/products/collateral/switches/catalyst-6500-series-switches/prod_end-of-life_notice0900aecd802e87bb.html'
p231
aS'/c/en/us/products/collateral/switches/catalyst-6500-series-switches/prod_end-of-life_notice0900aecd802c2f7b.html'
p232
aS'/c/en/us/products/collateral/switches/catalyst-6500-series-switches/prod_end-of-life_notice0900aecd8017a5d1.html'
p233
aS'/c/en/us/products/collateral/switches/catalyst-4500-series-switches/prod_end-of-life_notice0900aecd8016fb77.html'
p234
aS'/c/en/us/products/collateral/switches/catalyst-6500-series-switches/eos-eol-notice-c51-730610.html'
p235
aS'/c/en/us/products/collateral/switches/mgx-8800-series-switches/eos-eol-notice-c51-730610.html'
p236
aS'/c/en/us/products/collateral/switches/catalyst-6500-series-switches/prod_end-of-life_notice0900aecd80423d31.html'
p237
aS'/c/en/us/products/collateral/switches/mgx-8800-series-switches/end-of-life-notice-c51-729742.html'
p238
aS'/c/en/us/products/collateral/switches/mgx-8800-series-switches/end_of_life_notice_c51-729149.html'
p239
aS'/c/en/us/products/collateral/switches/catalyst-6500-series-switches/prod_end-of-life_notice0900aecd80646c9c.html'
p240
aS'/c/en/us/products/collateral/interfaces-modules/catalyst-6500-series-network-analysis-module-nam-3/eos-eol-notice-c51-731695.html'
p241
aS'/c/en/us/products/collateral/switches/catalyst-6500-series-switches/eos-eol-notice-c51-737192-fr.html'
p242
aS'/c/en/us/products/collateral/switches/catalyst-6500-series-switches/eos-eol-notice-c51-735926-fr.html'
p243
aS'/c/en/us/products/collateral/switches/catalyst-4900-series-switches/eos-eol-notice-c51-736182.html'
p244
aS'/c/en/us/products/collateral/switches/catalyst-4900-series-switches/eos-eol-notice-c51-732334.html'
p245
aS'/c/en/us/products/collateral/switches/catalyst-4900-series-switches/eos-eol-notice-c51-736182-fr.html'
p246
aS'/c/en/us/products/collateral/switches/energywise-technology/end_of_life_notice_c51-681346.html'
p247
aS'/c/en/us/products/collateral/switches/sfs-7000-infiniband-server-switch/prod_end-of-life_notice0900aecd8040d3cd.html'
p248
aS'/c/en/us/products/collateral/switches/sfs-7000-series-infiniband-server-switches/end_of_life_notice_c51-479907.html'
p249
aS'/c/en/us/products/collateral/switches/sfs-7000-series-infiniband-server-switches/prod_end-of-life_notice0900aecd804a91cf.html'
p250
aS'/c/en/us/products/collateral/switches/sfs-3012-multifabric-server-switch/end_of_life_notice_c51_462411.html'
p251
aS'/c/en/us/products/collateral/switches/sfs-3000-series-multifabric-server-switches/prod_end-of-life_notice0900aecd80686fad.html'
p252
aS'/c/en/us/products/collateral/unified-communications/unity-express/end_of_life_notice_c51-729017.html'
p253
aS'/c/en/us/products/collateral/unified-communications/smart-callconnector/end_of_life_notice_c51-729016.html'
p254
aS'/c/en/us/products/collateral/unified-communications/unity-express/end_of_life_notice_c51-729015.html'
p255
aS'/c/en/us/products/collateral/switches/small-business-500-series-stackable-managed-switches/eos-eol-notice-c51-737355.html'
p256
aS'/c/en/us/products/collateral/switches/small-business-500-series-stackable-managed-switches/eos-eol-notice-c51-737355-fr.html'
p257
aS'/c/en/us/products/collateral/switches/small-business-smart-switches/eos-eol-notice-c51-733211.html'
p258
aS'/c/en/us/products/collateral/switches/small-business-smart-switches/eos-eol-notice-c51-733135.html'
p259
aS'/c/en/us/products/collateral/switches/small-business-smart-switches/eos-eol-notice-c51-733134.html'
p260
aS'/c/en/us/products/collateral/switches/small-business-smart-switches/end_of_life_notice_c51-722600.html'
p261
aS'/c/en/us/products/collateral/switches/small-business-smart-switches/end_of_life_notice_c51-695273.html'
p262
aS'/c/en/us/products/collateral/switches/small-business-smart-switches/end_of_life_notice_c51-688858.html'
p263
aS'/c/en/us/products/collateral/switches/small-business-smart-switches/end_of_life_notice_c51-690032.html'
p264
aS'/c/en/us/products/collateral/switches/small-business-smart-switches/end_of_life_notice_c51-665124.html'
p265
aS'/c/en/us/products/collateral/switches/small-business-smart-switches/end_of_life_notice_c51-668282.html'
p266
aS'/c/en/us/products/collateral/switches/small-business-smart-switches/end_of_life_notice_c51-667063.html'
p267
aS'/c/en/us/products/collateral/switches/small-business-smart-switches/end_of_life_notice_c51-667179.html'
p268
aS'/c/en/us/products/collateral/switches/small-business-smart-switches/end_of_life_notice_c51-667046.html'
p269
aS'/c/en/us/products/collateral/switches/small-business-smart-switches/end_of_life_notice_c51-667189.html'
p270
aS'/c/en/us/products/collateral/switches/small-business-smart-switches/end_of_life_notice_c51-583874.html'
p271
aS'/c/en/us/products/collateral/switches/small-business-smart-switches/end_of_life_notice_c51-583880.html'
p272
aS'/c/en/us/products/collateral/switches/small-business-smart-switches/end_of_life_notice_c51-583876.html'
p273
aS'/c/en/us/products/collateral/switches/small-business-smart-switches/end_of_life_notice_c51-582570.html'
p274
aS'/c/en/us/products/collateral/switches/small-business-smart-switches/end_of_life_notice_c51-583883.html'
p275
aS'/c/en/us/products/collateral/switches/small-business-smart-switches/end_of_life_notice_c51-582558.html'
p276
aS'/c/en/us/products/collateral/switches/slm224g4ps-24-port-10-100-4-port-gigabit-smart-switch-poe/end_of_life_notice__c51-576784.html'
p277
aS'/c/en/us/products/collateral/switches/slm2005-5-port-gigabit-smart-switch-pd-ac-power/end_of_life_notice_c51-568721.html'
p278
aS'/c/en/us/products/collateral/switches/small-business-stackable-managed-switches/eos-eol-notice-c51-736961.html'
p279
aS'/c/en/us/products/collateral/switches/small-business-stackable-managed-switches/eos-eol-notice-c51-736791.html'
p280
aS'/c/en/us/products/collateral/switches/small-business-stackable-managed-switches/eos-eol-notice-c51-733213.html'
p281
aS'/c/en/us/products/collateral/switches/small-business-stackable-managed-switches/end_of_life_notice_c51-624821.html'
p282
aS'/c/en/us/products/collateral/switches/small-business-stackable-managed-switches/end_of_life_notice_c51-722247.html'
p283
aS'/c/en/us/products/collateral/switches/sfe2000-24-port-10-100-ethernet-switch/end_of_life_notice_c51-713605.html'
p284
aS'/c/en/us/products/collateral/switches/small-business-stackable-managed-switches/end_of_life_notice_c51-716935.html'
p285
aS'/c/en/us/products/collateral/switches/small-business-stackable-managed-switches/end_of_life_notice_c51-716932.html'
p286
aS'/c/en/us/products/collateral/switches/sge2000-24-port-gigabit-switch/end_of_life_notice_c51-716195.html'
p287
aS'/c/en/us/products/collateral/switches/sge2000-24-port-gigabit-switch/end_of_life_notice_c51-716196.html'
p288
aS'/c/en/us/products/collateral/switches/sge2000p-24-port-gigabit-switch-poe/end_of_life_notice_c51-716193.html'
p289
aS'/c/en/us/products/collateral/switches/srw208mp-8-port-10-100-ethernet-switch-webview-max-poe/end_of_life_notice_c51-687081.html'
p290
aS'/c/en/us/products/collateral/switches/small-business-stackable-managed-switches/end_of_life_notice_c51-658673.html'
p291
aS'/c/en/us/products/collateral/switches/srw224p-24-port-10-100-2-port-gigabit-switch-webview-poe/end_of_life_notice_c51-620082.html'
p292
aS'/c/en/us/products/collateral/switches/srw208g-8-port-10-100-ethernet-switch-webview-expn-slots/end_of_life_notice_c51-620031.html'
p293
aS'/c/en/us/products/collateral/switches/srw2024p-24-port-gigabit-switch-webview-poe/end_of_life_notice_c51-620049.html'
p294
aS'/c/en/us/products/collateral/switches/srw2016-16-port-gigabit-switch-webview/end_of_life_notice_c51-620045.html'
p295
aS'/c/en/us/products/collateral/switches/srw2008mp-8-port-gigabit-switch-webview-max-poe/end_of_life_notice_c51-578632.html'
p296
aS'/c/en/us/products/collateral/switches/srw2008-8-port-gigabit-switch-webview/end_of_life_notice_c51-620013.html'
p297
aS'/c/en/us/products/collateral/switches/srw2008-8-port-gigabit-switch-webview/end_of_life_notice_c51-620010.html'
p298
aS'/c/en/us/products/collateral/switches/small-business-stackable-managed-switches/end_of_life_notice_c51-632375.html'
p299
aS'/c/en/us/products/collateral/switches/small-business-stackable-managed-switches/end_of_life_notice_c51-632243.html'
p300
aS'/c/en/us/products/collateral/switches/small-business-stackable-managed-switches/end_of_life_notice_c51-626530.html'
p301
aS'/c/en/us/products/collateral/switches/small-business-stackable-managed-switches/end_of_life_notice_c51-620126.html'
p302
aS'/c/en/us/products/collateral/switches/small-business-stackable-managed-switches/end_of_life_notice_c51-620018.html'
p303
aS'/c/en/us/products/collateral/switches/small-business-stackable-managed-switches/end_of_life_notice_c51-610530.html'
p304
aS'/c/en/us/products/collateral/switches/small-business-stackable-managed-switches/end_of_life_notice_c51-610106.html'
p305
aS'/c/en/us/products/collateral/switches/small-business-stackable-managed-switches/end_of_life_notice_c51-512805.html'
p306
aS'/c/en/us/products/collateral/switches/small-business-stackable-managed-switches/end_of_life_notice_c51-626527.html'
p307
aS'/c/en/us/products/collateral/switches/small-business-stackable-managed-switches/eos-eol-notice-c51-736961-fr.html'
p308
aS'/c/en/us/products/collateral/switches/small-business-stackable-managed-switches/eos-eol-notice-c51-736791-fr.html'
p309
aS'/c/en/us/products/collateral/switches/sfe1000p-8-port-10-100-ethernet-switch-poe-fanless/end_of_life_notice_c51-582823.html'
p310
aS'/c/en/us/products/collateral/switches/sfe1000p-8-port-10-100-ethernet-switch-poe-fanless/end_of_life_notice_c51-577552.html'
p311
aS'/c/en/us/products/collateral/switches/small-business-unmanaged-switches/eos-eol-notice-c51-735772.html'
p312
aS'/c/en/us/products/collateral/switches/small-business-unmanaged-switches/eos-eol-notice-c51-735771.html'
p313
aS'/c/en/us/products/collateral/switches/small-business-unmanaged-switches/end_of_life_notice_c51-708186.html'
p314
aS'/c/en/us/products/collateral/switches/sr2024-24-port-10-100-1000-gigabit-switch/end_of_life_notice_c51-713616.html'
p315
aS'/c/en/us/products/collateral/switches/sr2024-24-port-10-100-1000-gigabit-switch/end_of_life_notice_c51-582511.html'
p316
aS'/c/en/us/products/collateral/switches/sr2016-16-port-10-100-1000-gigabit-switch/end_of_life_notice_c51-713743.html'
p317
aS'/c/en/us/products/collateral/switches/sr2016-16-port-10-100-1000-gigabit-switch/end_of_life_notice_c51-582568.html'
p318
aS'/c/en/us/products/collateral/switches/small-business-unmanaged-switches/end_of_life_notice_c51-713746.html'
p319
aS'/c/en/us/products/collateral/switches/small-business-unmanaged-switches/end_of_life_notice_c51-713745.html'
p320
aS'/c/en/us/products/collateral/switches/small-business-unmanaged-switches/end_of_life_notice_c51-708375.html'
p321
aS'/c/en/us/products/collateral/switches/small-business-unmanaged-switches/end_of_life_notice_c51-708188.html'
p322
aS'/c/en/us/products/collateral/switches/small-business-unmanaged-switches/end_of_life_notice_c51-708187.html'
p323
aS'/c/en/us/products/collateral/switches/small-business-unmanaged-switches/end_of_life_notice_c51-708185.html'
p324
aS'/c/en/us/products/collateral/switches/small-business-unmanaged-switches/end_of_life_notice_c51-708183.html'
p325
aS'/c/en/us/products/collateral/switches/small-business-unmanaged-switches/end_of_life_notice_c51-708181.html'
p326
aS'/c/en/us/products/collateral/switches/small-business-unmanaged-switches/end_of_life_notice_c51-708179.html'
p327
aS'/c/en/us/products/collateral/switches/small-business-unmanaged-switches/end_of_life_notice_c51-704794.html'
p328
aS'/c/en/us/products/collateral/switches/small-business-unmanaged-switches/end_of_life_notice_c51-650362.html'
p329
aS'/c/en/us/products/collateral/switches/small-business-unmanaged-switches/end_of_life_notice_c51-631995.html'
p330
aS'/c/en/us/products/collateral/switches/small-business-unmanaged-switches/end_of_life_notice_c51-604324.html'
p331
aS'/c/en/us/products/collateral/switches/small-business-unmanaged-switches/end_of_life_notice_c51-602995.html'
p332
aS'/c/en/us/products/collateral/switches/small-business-unmanaged-switches/end_of_life_notice_c51-602994.html'
p333
aS'/c/en/us/products/collateral/switches/small-business-unmanaged-switches/end_of_life_notice_c51-602991.html'
p334
aS'/c/en/us/products/collateral/switches/small-business-unmanaged-switches/end_of_life_notice_c51-602980.html'
p335
aS'/c/en/us/products/collateral/switches/small-business-unmanaged-switches/end_of_life_notice_c51-602976.html'
p336
aS'/c/en/us/products/collateral/switches/small-business-unmanaged-switches/end_of_life_notice_c51-583873.html'
p337
aS'/c/en/us/products/collateral/switches/sd208p-8-port-10-100-switch-poe-qos/end_of_life_notice_c51-716221.html'
p338
aS'/c/en/us/products/collateral/switches/small-business-unmanaged-switches/end_of_life_notice_c51-710762.html'
p339
aS'/c/en/us/products/collateral/switches/small-business-unmanaged-switches/end_of_life_notice_c51-602968.html'
p340
aS'/c/en/us/products/collateral/switches/small-business-unmanaged-switches/end_of_life_notice_c51-602965.html'
p341
aS'/c/en/us/products/collateral/switches/small-business-unmanaged-switches/end_of_life_notice_c51-602383.html'
p342
aS'/c/en/us/products/collateral/switches/small-business-unmanaged-switches/end_of_life_notice_c51-582549.html'
p343
aS'/c/en/us/products/collateral/switches/small-business-unmanaged-switches/eos-eol-notice-c51-735772-fr.html'
p344
aS'/c/en/us/products/collateral/switches/small-business-unmanaged-switches/eos-eol-notice-c51-735771-fr.html'
p345
aS'/c/en/us/products/collateral/switches/catalyst-6500-series-switches/eos-eol-notice-c51-737192.html'
p346
aS'/c/en/us/products/collateral/switches/catalyst-6500-series-switches/eos-eol-notice-c51-735926.html'
p347
aS'/c/en/us/products/collateral/routers/7600-series-routers/prod_end-of-life_notice0900aecd803f00c3.html'
p348
aS'/c/en/us/products/collateral/switches/mgx-8800-series-switches/end_of_life_notice_c51-729557.html'
p349
aS'/c/en/us/products/collateral/switches/catalyst-6500-series-switches/eos-eol-notice-c51-734057.html'
p350
aS'/c/en/us/products/collateral/switches/catalyst-6500-series-switches/eos-eol-notice-c51-733297.html'
p351
aS'/c/en/us/products/collateral/switches/catalyst-6500-series-switches/prod_end-of-life_notice0900aecd8035ece4.html'
p352
aS'/c/en/us/products/collateral/switches/catalyst-6500-series-switches/prod_end-of-life_notice09186a008023401e.html'
p353
aS'/c/en/us/products/collateral/switches/catalyst-6500-series-switches/prod_end-of-life_notice0900aecd80699e1a.html'
p354
aS'/c/en/us/products/collateral/switches/catalyst-6500-series-switches/prod_end-of-life_notice0900aecd80699ddb.html'
p355
aS'/c/en/us/products/collateral/switches/catalyst-6500-series-switches/prod_end-of-life_notice0900aecd80565c60.html'
p356
aS'/c/en/us/products/collateral/switches/catalyst-6500-series-switches/prod_end-of-life_notice0900aecd8054d461.html'
p357
aS'/c/en/us/products/collateral/switches/catalyst-6500-series-switches/prod_end-of-life_notice0900aecd804e1180.html'
p358
aS'/c/en/us/products/collateral/switches/catalyst-6500-series-switches/prod_end-of-life_notice0900aecd8046e4ae.html'
p359
aS'/c/en/us/products/collateral/switches/catalyst-6500-series-switches/prod_end-of-life_notice0900aecd80423d311.html'
p360
aS'/c/en/us/products/collateral/switches/catalyst-6500-series-switches/prod_end-of-life_notice0900aecd803e378d.html'
p361
aS'/c/en/us/products/collateral/switches/catalyst-6500-series-switches/prod_end-of-life_notice0900aecd800fd91f.html'
p362
aS'/c/en/us/products/collateral/switches/catalyst-6500-series-switches/prod_end-of-life_notice0900aecd801a8c6e.html'
p363
aS'/c/en/us/products/collateral/switches/catalyst-6500-series-switches/prod_end-of-life_notice0900aecd806d9953.html'
p364
aS'/c/en/us/products/collateral/switches/catalyst-6500-series-switches/prod_end-of-life_notice0900aecd806b9e49.html'
p365
aS'/c/en/us/products/collateral/switches/catalyst-6500-series-switches/prod_end-of-life_notice0900aecd8069af87.html'
p366
aS'/c/en/us/products/collateral/switches/catalyst-6500-series-switches/prod_end-of-life_notice0900aecd8067a132.html'
p367
aS'/c/en/us/products/collateral/switches/catalyst-6500-series-switches/prod_end-of-life_notice0900aecd80646c15.html'
p368
aS'/c/en/us/products/collateral/switches/catalyst-6500-series-switches/prod_end-of-life_notice0900aecd805f990d.html'
p369
aS'/c/en/us/products/collateral/switches/catalyst-6500-series-switches/prod_end-of-life_notice0900aecd805eaa8d.html'
p370
aS'/c/en/us/products/collateral/switches/catalyst-6500-series-switches/prod_end-of-life_notice0900aecd8042428a.html'
p371
aS'/c/en/us/products/collateral/switches/catalyst-6500-series-switches/prod_end-of-life_notice0900aecd8039f961.html'
p372
aS'/c/en/us/products/collateral/switches/catalyst-6500-series-switches/prod_end-of-life_notice0900aecd802e87bb.html'
p373
aS'/c/en/us/products/collateral/switches/catalyst-6500-series-switches/prod_end-of-life_notice0900aecd802c2f7b.html'
p374
aS'/c/en/us/products/collateral/switches/catalyst-6500-series-switches/prod_end-of-life_notice0900aecd8017a5d1.html'
p375
aS'/c/en/us/products/collateral/switches/catalyst-4500-series-switches/prod_end-of-life_notice0900aecd8016fb77.html'
p376
aS'/c/en/us/products/collateral/switches/catalyst-6500-series-switches/eos-eol-notice-c51-730610.html'
p377
aS'/c/en/us/products/collateral/switches/mgx-8800-series-switches/eos-eol-notice-c51-730610.html'
p378
aS'/c/en/us/products/collateral/switches/catalyst-6500-series-switches/prod_end-of-life_notice0900aecd80423d31.html'
p379
aS'/c/en/us/products/collateral/switches/mgx-8800-series-switches/end-of-life-notice-c51-729742.html'
p380
aS'/c/en/us/products/collateral/switches/mgx-8800-series-switches/end_of_life_notice_c51-729149.html'
p381
aS'/c/en/us/products/collateral/switches/catalyst-6500-series-switches/prod_end-of-life_notice0900aecd80646c9c.html'
p382
aS'/c/en/us/products/collateral/interfaces-modules/catalyst-6500-series-network-analysis-module-nam-3/eos-eol-notice-c51-731695.html'
p383
aS'/c/en/us/products/collateral/switches/catalyst-6500-series-switches/eos-eol-notice-c51-737192-fr.html'
p384
aS'/c/en/us/products/collateral/switches/catalyst-6500-series-switches/eos-eol-notice-c51-735926-fr.html'
p385
aS'/c/en/us/products/collateral/switches/catalyst-4500-series-switches/eos-eol-notice-c51-737203.html'
p386
aS'/c/en/us/products/collateral/switches/catalyst-4500-series-switches/eos-eol-notice-c51-737186.html'
p387
aS'/c/en/us/products/collateral/switches/catalyst-4500-series-switches/eos-eol-notice-c51-737185.html'
p388
aS'/c/en/us/products/collateral/switches/catalyst-4500-series-switches/eos-eol-notice-c51-736507.html'
p389
aS'/c/en/us/products/collateral/switches/catalyst-4500-series-switches/eos-eol-notice-c51-736474.html'
p390
aS'/c/en/us/products/collateral/switches/catalyst-4000-series-switches/prod_end-of-life_notice09186a00801eb0ae.html'
p391
aS'/c/en/us/products/collateral/switches/catalyst-4000-series-switches/prod_end-of-life_notice0900aecd80324aee.html'
p392
aS'/c/en/us/products/collateral/switches/catalyst-4500-series-switches/prod_end-of-life_notice0900aecd80199950.html'
p393
aS'/c/en/us/products/collateral/switches/catalyst-4500-series-switches/eos-eol-notice-c51-732500.html'
p394
aS'/c/en/us/products/collateral/switches/catalyst-4500-series-switches/eos-eol-notice-c51-730044.html'
p395
aS'/c/en/us/products/collateral/switches/catalyst-4500-series-switches/eos-eol-notice-c51-731750.html'
p396
aS'/c/en/us/products/collateral/switches/catalyst-4500-series-switches/prod_end-of-life_notice0900aecd8065b070.html'
p397
aS'/c/en/us/products/collateral/switches/catalyst-4500-series-switches/prod_end-of-life_notice0900aecd804be204.html'
p398
aS'/c/en/us/products/collateral/switches/catalyst-4500-series-switches/prod_end-of-life_notice0900aecd804ff027.html'
p399
aS'/c/en/us/products/collateral/switches/catalyst-4500-series-switches/prod_end-of-life_notice0900aecd802f8b74.html'
p400
aS'/c/en/us/products/collateral/switches/catalyst-4500-series-switches/prod_end-of-life_notice0900aecd8016fb77.html'
p401
aS'/c/en/us/products/collateral/switches/catalyst-4500-series-switches/prod_end-of-life_notice0900aecd80701579.html'
p402
aS'/c/en/us/products/collateral/switches/catalyst-4500-series-switches/prod_end-of-life_notice0900aecd80256100.html'
p403
aS'/c/en/us/products/collateral/switches/catalyst-4500-series-switches/end_of_life_notice_c51-551230.html'
p404
aS'/c/en/us/products/collateral/switches/catalyst-4500-series-switches/end_of_life_notice_c51-528164.html'
p405
aS'/c/en/us/products/collateral/switches/catalyst-6500-series-switches/eos-eol-notice-c51-730045.html'
p406
aS'/c/en/us/products/collateral/switches/catalyst-6500-series-switches/eos-eol-notice-c51-730031.html'
p407
aS'/c/en/us/products/collateral/switches/catalyst-6500-series-switches/eos-eol-notice-c51-730030.html'
p408
aS'/c/en/us/products/collateral/switches/catalyst-4500-series-switches/eos-eol-notice-c51-737203-fr.html'
p409
aS'/c/en/us/products/collateral/switches/catalyst-4500-series-switches/eos-eol-notice-c51-737186-fr.html'
p410
aS'/c/en/us/products/collateral/switches/catalyst-4500-series-switches/eos-eol-notice-c51-737185-fr.html'
p411
aS'/c/en/us/products/collateral/switches/catalyst-4500-series-switches/eos-eol-notice-c51-736507-fr.html'
p412
aS'/c/en/us/products/collateral/switches/catalyst-4500-series-switches/eos-eol-notice-c51-736474-fr.html'
p413
aS'/c/en/us/products/collateral/switches/me-3800x-series-carrier-ethernet-switch-routers/eos-eol-notice-c51-734222.html'
p414
aS'/c/en/us/products/collateral/switches/me-3800x-series-carrier-ethernet-switch-routers/eos-eol-notice-c51-733937.html'
p415
aS'/c/en/us/products/collateral/switches/me-3800x-series-carrier-ethernet-switch-routers/eos-eol-notice-c51-731423.html'
p416
aS'/c/en/us/products/collateral/switches/me-3800x-series-carrier-ethernet-switch-routers/eos-eol-notice-c51-731127.html'
p417
aS'/c/en/us/products/collateral/switches/me-3800x-series-carrier-ethernet-switch-routers/end_of_life_notice_c51-728174.html'
p418
aS'/c/en/us/products/collateral/switches/me-3600x-series-ethernet-access-switches/end_of_life_notice_c51-727634.html'
p419
aS'/c/en/us/products/collateral/switches/me-3600x-series-ethernet-access-switches/end_of_life_notice_c51-726193.html'
p420
aS'/c/en/us/products/collateral/switches/me-3600x-series-ethernet-access-switches/end_of_life_notice_c51-726192.html'
p421
aS'/c/en/us/products/collateral/switches/me-3600x-series-ethernet-access-switches/end_of_life_notice_c51-726196.html'
p422
aS'/c/en/us/products/collateral/switches/me-3800x-series-carrier-ethernet-switch-routers/end_of_life_notice_c51-726195.html'
p423
aS'/c/en/us/products/collateral/switches/catalyst-3750-metro-series-switches/prod_end-of-life_notice0900aecd804c7228.html'
p424
aS'/c/en/us/products/collateral/switches/catalyst-3750-metro-series-switches/end_of_life_notice_c51-650045.html'
p425
aS'/c/en/us/products/collateral/switches/me-3600x-series-ethernet-access-switches/eos-eol-notice-c51-734199.html'
p426
aS'/c/en/us/products/collateral/switches/me-3600x-series-ethernet-access-switches/eos-eol-notice-c51-733938.html'
p427
aS'/c/en/us/products/collateral/switches/me-3600x-series-ethernet-access-switches/eos-eol-notice-c51-731422.html'
p428
aS'/c/en/us/products/collateral/switches/me-3600x-series-ethernet-access-switches/eos-eol-notice-c51-730872.html'
p429
aS'/c/en/us/products/collateral/switches/me-3600x-series-ethernet-access-switches/end_of_life_notice_c51-728173.html'
p430
aS'/c/en/us/products/collateral/switches/me-3600x-series-ethernet-access-switches/end_of_life_notice_c51-727634.html'
p431
aS'/c/en/us/products/collateral/switches/me-3600x-series-ethernet-access-switches/end_of_life_notice_c51-726193.html'
p432
aS'/c/en/us/products/collateral/switches/me-3600x-series-ethernet-access-switches/end_of_life_notice_c51-726192.html'
p433
aS'/c/en/us/products/collateral/switches/me-3600x-series-ethernet-access-switches/end_of_life_notice_c51-726196.html'
p434
aS'/c/en/us/products/collateral/switches/me-3800x-series-carrier-ethernet-switch-routers/end_of_life_notice_c51-726195.html'
p435
aS'/c/en/us/products/collateral/switches/me-3400-series-ethernet-access-switches/eos-eol-notice-c51-735390.html'
p436
aS'/c/en/us/products/collateral/switches/me-3400-series-ethernet-access-switches/end_of_life_notice_c51-726108.html'
p437
aS'/c/en/us/products/collateral/switches/me-3400-series-ethernet-access-switches/eos-eol-notice-c51-735390-fr.html'
p438
aS'/c/en/us/products/collateral/switches/citrix-netscaler-1000v/eos-eol-notice-c51-736804.html'
p439
aS'/c/en/us/products/collateral/switches/citrix-netscaler-1000v/eos-eol-notice-c51-736804-fr.html'
p440
aS'/c/en/us/products/collateral/routers/asr-1000-series-aggregation-services-routers/eos-eol-notice-c51-736431.html'
p441
aS'/c/en/us/products/collateral/routers/asr-1000-series-aggregation-services-routers/eos-eol-notice-c51-736431-fr.html'
p442
aS'/c/en/us/products/collateral/cloud-systems-management/nam-2000-series-appliances/eos-eol-notice-c51-734820.html'
p443
aS'/c/en/us/products/collateral/switches/igx-8400-series-switches/prod_end-of-life_notice0900aecd80137eae.html'
p444
aS'/c/en/us/products/collateral/switches/igx-8400-series-switches/prod_end-of-life_notice0900aecd8029e9fb.html'
p445
aS'/c/en/us/products/collateral/switches/igx-8400-series-switches/prod_end-of-life_notice09186a008032d42c.html'
p446
aS'/c/en/us/products/collateral/switches/mgx-8850-software/prod_end-of-life_notice0900aecd80235165.html'
p447
aS'/c/en/us/products/collateral/switches/mgx-8850-multiservice-switch/prod_end-of-life_notice0900aecd80295965.html'
p448
aS'/c/en/us/products/collateral/switches/mgx-8800-series-switches/end_of_life_notice_c51-612754.html'
p449
aS'/c/en/us/products/collateral/switches/mgx-8800-series-switches/end_of_life_notice_c51-612744.html'
p450
aS'/c/en/us/products/collateral/switches/mgx-8800-series-switches/end_of_life_notice_c51-612740.html'
p451
aS'/c/en/us/products/collateral/switches/mgx-8800-series-switches/prod_end-of-life_notice0900aecd80456dbb.html'
p452
aS'/c/en/us/products/collateral/switches/mgx-8800-series-switches/prod_end-of-life_notice0900aecd805cb40a.html'
p453
aS'/c/en/us/products/collateral/switches/mgx-8800-series-switches/end_of_life_notice_c51-612753.html'
p454
aS'/c/en/us/products/collateral/switches/mgx-8800-series-switches/end_of_life_notice_c51-612746.html'
p455
aS'/c/en/us/products/collateral/switches/mgx-8800-series-switches/end_of_life_notice_c51-612743.html'
p456
aS'/c/en/us/products/collateral/switches/mgx-8800-series-switches/end_of_life_notice_c51-612741.html'
p457
aS'/c/en/us/products/collateral/switches/mgx-8800-series-switches/prod_end-of-life_notice0900aecd80599d97.html'
p458
aS'/c/en/us/products/collateral/switches/mgx-8800-series-switches/prod_end-of-life_notice0900aecd805566a4.html'
p459
aS'/c/en/us/products/collateral/switches/mgx-8800-series-switches/prod_end-of-life_notice0900aecd80498397.html'
p460
aS'/c/en/us/products/collateral/switches/mgx-8800-series-switches/prod_end-of-life_notice0900aecd802e2a9b.html'
p461
aS'/c/en/us/products/collateral/switches/mgx-8800-series-switches/prod_end-of-life_notice0900aecd8027b98d.html'
p462
aS'/c/en/us/products/collateral/switches/mgx-8800-series-switches/prod_end-of-life_notice0900aecd801a01f4.html'
p463
aS'/c/en/us/products/collateral/switches/mgx-8850-software/prod_end-of-life_notice0900aecd80235165.html'
p464
aS'/c/en/us/products/collateral/switches/mgx-8800-series-switches/end_of_life_notice_c51-612766.html'
p465
aS'/c/en/us/products/collateral/switches/mgx-8800-series-switches/prod_end-of-life_notice0900aecd8065cd00.html'
p466
aS'/c/en/us/products/collateral/switches/mgx-8200-series-edge-concentrators/prod_end-of-life_notice0900aecd801cbf97.html'
p467
aS'/c/en/us/products/collateral/interfaces-modules/route-processors-route-switch-processors/prod_end-of-life_notice0900aecd8016c435.html'
p468
aS'/c/en/us/products/collateral/switches/mgx-8200-series-edge-concentrators/prod_end-of-life_notice0900aecd802ff0e7.html'
p469
aS'/c/en/us/products/collateral/switches/mgx-8200-series-edge-concentrators/prod_end-of-life_notice0900aecd8048de30.html'
p470
aS'/c/en/us/products/collateral/switches/mgx-8200-series-edge-concentrators/prod_end-of-life_notice0900aecd802ff0d4.html'
p471
aS'/c/en/us/products/collateral/switches/mgx-8200-series-edge-concentrators/prod_end-of-life_notice0900aecd801cbf97.html'
p472
aS'/c/en/us/products/collateral/routers/wide-area-application-services-waas-software/eos-eol-notice-c51-736996.html'
p473
aS'/c/en/us/products/collateral/routers/wide-area-application-services-waas-software/eos-eol-notice-c51-733080.html'
p474
aS'/c/en/us/products/collateral/routers/wide-area-application-services-waas-software/eos-eol-notice-C51-731077.html'
p475
aS'/c/en/us/products/collateral/routers/asr-1000-series-aggregation-services-routers/eos-eol-notice-c51-737081.html'
p476
aS'/c/en/us/products/collateral/routers/asr-1000-series-aggregation-services-routers/eos-eol-notice-c51-736431.html'
p477
aS'/c/en/us/products/collateral/routers/4400-series-integrated-services-routers-isr/eos-eol-notice-c51-730942.html'
p478
aS'/c/en/us/products/collateral/routers/asr-1000-series-aggregation-services-routers/eos-eol-notice-c51-737081-fr.html'
p479
aS'/c/en/us/products/collateral/routers/asr-1000-series-aggregation-services-routers/eos-eol-notice-c51-736431-fr.html'
p480
aS'/c/en/us/products/collateral/routers/3900-series-integrated-services-routers-isr/end_of_life_notice_c51-728828.html'
p481
aS'/c/en/us/products/collateral/routers/3900-series-integrated-services-routers-isr/end_of_life_notice_c51-722603.html'
p482
aS'/c/en/us/products/collateral/routers/3900-series-integrated-services-routers-isr/end_of_life_notice_c51-715840.html'
p483
aS'/c/en/us/products/collateral/routers/3900-series-integrated-services-routers-isr/end-of-life-notice-c51-729830.html'
p484
aS'/c/en/us/products/collateral/interfaces-modules/modem-cards/end_of_life_notice_c51-726696.html'
p485
aS'/c/en/us/products/collateral/routers/3900-series-integrated-services-routers-isr/eos-eol-notice-c51-731926.html'
p486
aS'/c/en/us/products/collateral/routers/3900-series-integrated-services-routers-isr/eos-eol-notice-c51-731733.html'
p487
aS'/c/en/us/products/collateral/routers/3900-series-integrated-services-routers-isr/eos-eol-notice-c51-731732.html'
p488
aS'/c/en/us/products/collateral/routers/3900-series-integrated-services-routers-isr/eos-eol-notice-c51-730947.html'
p489
aS'/c/en/us/products/collateral/routers/3900-series-integrated-services-routers-isr/eos-eol-notice-c51-730944.html'
p490
aS'/c/en/us/products/collateral/routers/3900-series-integrated-services-routers-isr/end-of-life-notice-c51-729829.html'
p491
aS'/c/en/us/products/collateral/routers/3900-series-integrated-services-routers-isr/end-of-life-notice-c51-729828.html'
p492
aS'/c/en/us/products/collateral/routers/2600-series-multiservice-platforms/prod_end-of-life_notice0900aecd806f43e4.html'
p493
aS'/c/en/us/products/collateral/routers/3800-series-integrated-services-routers-isr/eos-eol-notice-c51-733860.html'
p494
aS'/c/en/us/products/collateral/routers/3800-series-integrated-services-routers-isr/eos-eol-notice-c51-732096.html'
p495
aS'/c/en/us/products/collateral/routers/3800-series-integrated-services-routers-isr/eos-eol-notice-c51-731834.html'
p496
aS'/c/en/us/products/collateral/routers/2800-series-integrated-services-routers-isr/end_of_life_notice_c51-729577.html'
p497
aS'/c/en/us/products/collateral/routers/1800-series-integrated-services-routers-isr/prod_end-of-life_notice0900aecd8035cc4e.html'
p498
aS'/c/en/us/products/collateral/routers/3800-series-integrated-services-routers-isr/end_of_life_notice_c51-713660.html'
p499
aS'/c/en/us/products/collateral/routers/3800-series-integrated-services-routers-isr/prod_end-of-life_notice0900aecd8070efb4.html'
p500
aS'/c/en/us/products/collateral/routers/3800-series-integrated-services-routers-isr/prod_end-of-life_notice0900aecd8067ddcc.html'
p501
aS'/c/en/us/products/collateral/routers/3800-series-integrated-services-routers-isr/end_of_life_notice_c51-714612.html'
p502
aS'/c/en/us/products/collateral/routers/3800-series-integrated-services-routers-isr/end_of_life_notice_c51-713911.html'
p503
aS'/c/en/us/products/collateral/routers/3800-series-integrated-services-routers-isr/end_of_life_notice_c51-713910.html'
p504
aS'/c/en/us/products/collateral/routers/3800-series-integrated-services-routers-isr/end_of_life_notice_c51-713909.html'
p505
aS'/c/en/us/products/collateral/routers/3800-series-integrated-services-routers-isr/end_of_life_notice_c51-713612.html'
p506
aS'/c/en/us/products/collateral/routers/3800-series-integrated-services-routers-isr/end_of_life_notice_c51-713514.html'
p507
aS'/c/en/us/products/collateral/routers/3800-series-integrated-services-routers-isr/end_of_life_notice_c51-713611.html'
p508
aS'/c/en/us/products/collateral/routers/3800-series-integrated-services-routers-isr/end_of_life_notice_c51-711683.html'
p509
aS'/c/en/us/products/collateral/routers/7200-series-routers/end_of_life_notice_c51-501483.html'
p510
aS'/c/en/us/products/collateral/interfaces-modules/network-modules/prod_end-of-life_notice0900aecd806aeb34.html'
p511
aS'/c/en/us/products/collateral/routers/3600-series-multiservice-platforms/prod_end-of-life_notice0900aecd8052c928.html'
p512
aS'/c/en/us/products/collateral/routers/1700-series-modular-access-routers/prod_end-of-life_notice0900aecd802d3d0b.html'
p513
aS'/c/en/us/products/collateral/routers/2900-series-integrated-services-routers-isr/eos-eol-notice-c51-737143.html'
p514
aS'/c/en/us/products/collateral/routers/2900-series-integrated-services-routers-isr/eos-eol-notice-c51-731925.html'
p515
aS'/c/en/us/products/collateral/routers/2900-series-integrated-services-routers-isr/eos-eol-notice-c51-730943.html'
p516
aS'/c/en/us/products/collateral/routers/2900-series-integrated-services-routers-isr/end_of_life_notice_c51-722602.html'
p517
aS'/c/en/us/products/collateral/routers/2900-series-integrated-services-routers-isr/end_of_life_notice_c51-729131.html'
p518
aS'/c/en/us/products/collateral/interfaces-modules/modem-cards/end_of_life_notice_c51-726696.html'
p519
aS'/c/en/us/products/collateral/routers/2900-series-integrated-services-routers-isr/eos-eol-notice-c51-730946.html'
p520
aS'/c/en/us/products/collateral/routers/2800-series-integrated-services-routers-isr/eos-eol-notice-c51-735924.html'
p521
aS'/c/en/us/products/collateral/routers/2800-series-integrated-services-routers-isr/eos-eol-notice-c51-733869.html'
p522
aS'/c/en/us/products/collateral/routers/2800-series-integrated-services-routers-isr/eos-eol-notice-c51-734302.html'
p523
aS'/c/en/us/products/collateral/routers/2800-series-integrated-services-routers-isr/eos-eol-notice-c51-733885.html'
p524
aS'/c/en/us/products/collateral/routers/1700-series-modular-access-routers/prod_end-of-life_notice0900aecd802d3d0b.html'
p525
aS'/c/en/us/products/collateral/switches/catalyst-4500-series-switches/eos-eol-notice-c51-730175.html'
p526
aS'/c/en/us/products/collateral/switches/catalyst-4500-series-switches/eos-eol-notice-c51-730323.html'
p527
aS'/c/en/us/products/collateral/switches/catalyst-4500-series-switches/eos-eol-notice-c51-729929.html'
p528
aS'/c/en/us/products/collateral/switches/catalyst-4500-series-switches/end_of_life_notice_c51-729629.html'
p529
aS'/c/en/us/products/collateral/routers/7200-series-routers/end_of_life_notice_c51-501483.html'
p530
aS'/c/en/us/products/collateral/routers/2800-series-integrated-services-routers-isr/eos-eol-notice-c51-731837.html'
p531
aS'/c/en/us/products/collateral/routers/1800-series-integrated-services-routers-isr/prod_end-of-life_notice0900aecd8035cc4e.html'
p532
aS'/c/en/us/products/collateral/routers/3800-series-integrated-services-routers-isr/prod_end-of-life_notice0900aecd8070efb4.html'
p533
aS'/c/en/us/products/collateral/routers/3800-series-integrated-services-routers-isr/prod_end-of-life_notice0900aecd8067ddcc.html'
p534
aS'/c/en/us/products/collateral/routers/2800-series-integrated-services-routers-isr/prod_end-of-life_notice0900aecd806d9ca4.html'
p535
aS'/c/en/us/products/collateral/routers/2800-series-integrated-services-routers-isr/end_of_life_notice_c51-728143.html'
p536
aS'/c/en/us/products/collateral/routers/2800-series-integrated-services-routers-isr/end_of_life_notice_c51-713692.html'
p537
aS'/c/en/us/products/collateral/routers/2800-series-integrated-services-routers-isr/end_of_life_notice_c51-466098.html'
p538
aS'/c/en/us/products/collateral/routers/2800-series-integrated-services-routers-isr/eos-eol-notice-c51-735924-fr.html'
p539
aS'/c/en/us/products/collateral/interfaces-modules/network-modules/prod_end-of-life_notice0900aecd806aeb34.html'
p540
aS'/c/en/us/products/collateral/routers/1900-series-integrated-services-routers-isr/eos-eol-notice-c51-737501.html'
p541
aS'/c/en/us/products/collateral/routers/1900-series-integrated-services-routers-isr/eos-eol-notice-c51-732095.html'
p542
aS'/c/en/us/products/collateral/routers/1900-series-integrated-services-routers-isr/eos-eol-notice-c51-731924.html'
p543
aS'/c/en/us/products/collateral/routers/1900-series-integrated-services-routers-isr/eos-eol-notice-c51-731014.html'
p544
aS'/c/en/us/products/collateral/routers/1900-series-integrated-services-routers-isr/eos-eol-notice-c51-730945.html'
p545
aS'/c/en/us/products/collateral/routers/1900-series-integrated-services-routers-isr/end_of_life_notice_c51-713617.html'
p546
aS'/c/en/us/products/collateral/routers/1900-series-integrated-services-routers-isr/end_of_life_notice_c51-711895.html'
p547
aS'/c/en/us/products/collateral/routers/carrier-routing-system/end_of_life_notice_c51-729437.html'
p548
aS'/c/en/us/products/collateral/routers/1800-series-integrated-services-routers-isr/eos-eol-notice-c51-733861.html'
p549
aS'/c/en/us/products/collateral/routers/1800-series-integrated-services-routers-isr/eos-eol-notice-c51-731833.html'
p550
aS'/c/en/us/products/collateral/routers/carrier-routing-system/end_of_life_notice_c51-729436.html'
p551
aS'/c/en/us/products/collateral/routers/1800-series-integrated-services-routers-isr/eos-eol-notice-c51-731013.html'
p552
aS'/c/en/us/products/collateral/routers/1800-series-integrated-services-routers-isr/prod_end-of-life_notice0900aecd8035cc4e.html'
p553
aS'/c/en/us/products/collateral/routers/carrier-routing-system/eos-eol-notice-c51-730401.html'
p554
aS'/c/en/us/products/collateral/routers/carrier-routing-system/eos-eol-notice-c51-730244.html'
p555
aS'/c/en/us/products/collateral/routers/carrier-routing-system/eos-eol-notice-c51-730176.html'
p556
aS'/c/en/us/products/collateral/routers/carrier-routing-system/eos-eol-notice-c51-730177.html'
p557
aS'/c/en/us/products/collateral/routers/1800-series-integrated-services-routers-isr/end_of_life_notice_c51-713999.html'
p558
aS'/c/en/us/products/collateral/routers/1800-series-integrated-services-routers-isr/end_of_life_notice_c51-726852.html'
p559
aS'/c/en/us/products/collateral/routers/1800-series-integrated-services-routers-isr/end_of_life_notice_c51-726683.html'
p560
aS'/c/en/us/products/collateral/routers/1800-series-integrated-services-routers-isr/end_of_life_notice_c51-716749.html'
p561
aS'/c/en/us/products/collateral/routers/1800-series-integrated-services-routers-isr/end_of_life_notice_c51-715325.html'
p562
aS'/c/en/us/products/collateral/routers/1800-series-integrated-services-routers-isr/end_of_life_notice_c51-687786.html'
p563
aS'/c/en/us/products/collateral/routers/1800-series-integrated-services-routers-isr/end_of_life_notice_c51-543583.html'
p564
aS'/c/en/us/products/collateral/routers/7200-series-routers/end_of_life_notice_c51-501483.html'
p565
aS'/c/en/us/products/collateral/routers/1800-series-integrated-services-routers-isr/prod_end-of-life_notice0900aecd8066a188.html'
p566
aS'/c/en/us/products/collateral/routers/800-series-routers/eos-eol-notice-c51-737365.html'
p567
aS'/c/en/us/products/collateral/routers/800-series-routers/eos-eol-notice-c51-737356.html'
p568
aS'/c/en/us/products/collateral/routers/800-series-routers/eos-eol-notice-c51-735923.html'
p569
aS'/c/en/us/products/collateral/routers/800-series-routers/eos-eol-notice-c51-735847.html'
p570
aS'/c/en/us/products/collateral/routers/2800-series-integrated-services-routers-isr/eos-eol-notice-c51-734302.html'
p571
aS'/c/en/us/products/collateral/routers/800-series-routers/eos-eol-notice-c51-733569.html'
p572
aS'/c/en/us/products/collateral/routers/800-series-routers/prod_end-of-life_notice0900aecd80338765.html'
p573
aS'/c/en/us/products/collateral/routers/800-series-routers/eos-eol-notice-c51-734171.html'
p574
aS'/c/en/us/products/collateral/routers/soho-70-series-routers/prod_end-of-life_notice09186a008017fe7f.html'
p575
aS'/c/en/us/products/collateral/routers/800-series-routers/prod_end-of-life_notice0900aecd805b174f.html'
p576
aS'/c/en/us/products/collateral/routers/800-series-routers/prod_end-of-life_notice0900aecd805a7fee.html'
p577
aS'/c/en/us/products/collateral/routers/800-series-routers/prod_end-of-life_notice0900aecd8039c6af.html'
p578
aS'/c/en/us/products/collateral/routers/800-series-routers/end_of_life_notice_c51-728144.html'
p579
aS'/c/en/us/products/collateral/routers/800-series-routers/end_of_life_notice_c51-727950.html'
p580
aS'/c/en/us/products/collateral/routers/800-series-routers/end_of_life_notice_c51-727949.html'
p581
aS'/c/en/us/products/collateral/routers/800-series-routers/end_of_life_notice_c51-714534.html'
p582
aS'/c/en/us/products/collateral/routers/800-series-routers/end_of_life_notice_c51-714532.html'
p583
aS'/c/en/us/products/collateral/routers/800-series-routers/end_of_life_notice_c51-714322.html'
p584
aS'/c/en/us/products/collateral/routers/800-series-routers/end_of_life_notice_c51-714321.html'
p585
aS'/c/en/us/products/collateral/routers/800-series-routers/end_of_life_notice_c51-714320.html'
p586
aS'/c/en/us/products/collateral/routers/800-series-routers/end_of_life_notice_c51-714000.html'
p587
aS'/c/en/us/products/collateral/routers/800-series-routers/end_of_life_notice_c51-713658.html'
p588
aS'/c/en/us/products/collateral/routers/800-series-routers/end_of_life_notice_c51-713613.html'
p589
aS'/c/en/us/products/collateral/routers/800-series-routers/end_of_life_notice_c51-713515.html'
p590
aS'/c/en/us/products/collateral/routers/800-series-routers/end_of_life_notice_c51-713392.html'
p591
aS'/c/en/us/products/collateral/routers/800-series-routers/end_of_life_notice_c51-712174.html'
p592
aS'/c/en/us/products/collateral/routers/800-series-routers/end_of_life_notice_c51-711893.html'
p593
aS'/c/en/us/products/collateral/routers/800-series-routers/end_of_life_notice_c51-709985.html'
p594
aS'/c/en/us/products/collateral/routers/800-series-routers/end_of_life_notice_c51-704404.html'
p595
aS'/c/en/us/products/collateral/routers/800-series-routers/end_of_life_notice_c51-704401.html'
p596
aS'/c/en/us/products/collateral/routers/800-series-routers/end_of_life_notice_c51-704399.html'
p597
aS'/c/en/us/products/collateral/routers/800-series-routers/eos-eol-notice-c51-731103.html'
p598
aS'/c/en/us/products/collateral/routers/800-series-routers/eos-eol-notice-c51-731579.html'
p599
aS'/c/en/us/products/collateral/routers/800-series-routers/eos-eol-notice-c51-731559.html'
p600
aS'/c/en/us/products/collateral/routers/800-series-routers/eos-eol-notice-c51-730682.html'
p601
aS'/c/en/us/products/collateral/routers/800-series-routers/eos-eol-notice-c51-730681.html'
p602
aS'/c/en/us/products/collateral/routers/800-series-routers/eos-eol-notice-c51-731015.html'
p603
aS'/c/en/us/products/collateral/routers/800-series-routers/eos-eol-notice-c51-731104.html'
p604
aS'/c/en/us/products/collateral/routers/800-series-routers/eos-eol-notice-c51-730680.html'
p605
aS'/c/en/us/products/collateral/routers/800-series-routers/eos-eol-notice-c51-730320.html'
p606
aS'/c/en/us/products/collateral/routers/800-series-routers/eos-eol-notice-c51-730319.html'
p607
aS'/c/en/us/products/collateral/routers/800-series-routers/eos-eol-notice-c51-730248.html'
p608
aS'/c/en/us/products/collateral/routers/800-series-routers/eos-eol-notice-c51-730247.html'
p609
aS'/c/en/us/products/collateral/routers/800-series-routers/end_of_life_notice_c51-712178.html'
p610
aS'/c/en/us/products/collateral/routers/800-series-routers/prod_end-of-life_notice0900aecd804d5abd.html'
p611
aS'/c/en/us/products/collateral/routers/800-series-routers/eos-eol-notice-c51-735923-fr.html'
p612
aS'/c/en/us/products/collateral/routers/800-series-routers/eos-eol-notice-c51-735847-fr.html'
p613
aS'/c/en/us/products/collateral/unified-communications/unified-survivable-remote-site-telephony/end_of_life_notice_c51-500645.html'
p614
aS'/c/en/us/products/collateral/routers/7600-series-routers/end_of_life_notice_c51-706109.html'
p615
aS'/c/en/us/products/collateral/routers/7600-series-routers/eos-eol-notice-c51-735517.html'
p616
aS'/c/en/us/products/collateral/routers/7600-series-routers/eos-eol-notice-c51-736652.html'
p617
aS'/c/en/us/products/collateral/routers/7600-series-routers/eos-eol-notice-c51-735575.html'
p618
aS'/c/en/us/products/collateral/routers/7600-series-routers/eos-eol-notice-c51-735519.html'
p619
aS'/c/en/us/products/collateral/routers/7600-series-routers/eos-eol-notice-c51-734314.html'
p620
aS'/c/en/us/products/collateral/routers/7600-series-routers/prod_end-of-life_notice0900aecd807396bc.html'
p621
aS'/c/en/us/products/collateral/routers/7600-series-routers/prod_end-of-life_notice0900aecd806b0baa.html'
p622
aS'/c/en/us/products/collateral/routers/7600-series-routers/prod_end-of-life_notice0900aecd805aa9a9.html'
p623
aS'/c/en/us/products/collateral/routers/7600-series-routers/prod_end-of-life_notice0900aecd803f00c3.html'
p624
aS'/c/en/us/products/collateral/routers/7600-series-routers/prod_end-of-life_notice0900aecd80328197.html'
p625
aS'/c/en/us/products/collateral/routers/7600-series-routers/prod_end-of-life_notice0900aecd803040e3.html'
p626
aS'/c/en/us/products/collateral/routers/7600-series-routers/prod_end-of-life_notice0900aecd802e9c57.html'
p627
aS'/c/en/us/products/collateral/routers/7600-series-routers/prod_end-of-life_notice0900aecd80226dc5.html'
p628
aS'/c/en/us/products/collateral/routers/7600-series-routers/prod_end-of-life_notice0900aecd8022200b.html'
p629
aS'/c/en/us/products/collateral/routers/7600-series-routers/end_of_life_notice_c51-729277.html'
p630
aS'/c/en/us/products/collateral/routers/7600-series-routers/end_of_life_notice_c51-729112.html'
p631
aS'/c/en/us/products/collateral/routers/7600-series-routers/end_of_life_notice_c51-726516.html'
p632
aS'/c/en/us/products/collateral/routers/7600-series-routers/end_of_life_notice_c51-676996.html'
p633
aS'/c/en/us/products/collateral/routers/7600-series-routers/end_of_life_notice_c51-557053.html'
p634
aS'/c/en/us/products/collateral/routers/7600-series-routers/end_of_life_notice_c51-507197.html'
p635
aS'/c/en/us/products/collateral/routers/7600-series-routers/eos-eol-notice-c51-734158.html'
p636
aS'/c/en/us/products/collateral/switches/catalyst-6500-series-switches/eos-eol-notice-c51-733297.html'
p637
aS'/c/en/us/products/collateral/routers/7600-series-routers/eos-eol-notice-c51-733555.html'
p638
aS'/c/en/us/products/collateral/routers/7600-series-routers/eos-eol-notice-c51-733146.html'
p639
aS'/c/en/us/products/collateral/routers/7600-series-routers/eos-eol-notice-c51-732960.html'
p640
aS'/c/en/us/products/collateral/routers/7600-series-routers/eos-eol-notice-c51-732057.html'
p641
aS'/c/en/us/products/collateral/routers/7600-series-routers/eos-eol-notice-c51-731089.html'
p642
aS'/c/en/us/products/collateral/routers/7600-series-routers/eos-eol-notice-c51-731088.html'
p643
aS'/c/en/us/products/collateral/routers/7600-series-routers/eos-eol-notice-c51-731062.html'
p644
aS'/c/en/us/products/collateral/switches/catalyst-6500-series-switches/prod_end-of-life_notice0900aecd806b9e49.html'
p645
aS'/c/en/us/products/collateral/routers/7600-series-routers/end_of_life_notice_c51-728933.html'
p646
aS'/c/en/us/products/collateral/routers/7600-series-routers/prod_end-of-life_notice0900aecd807396c3.html'
p647
aS'/c/en/us/products/collateral/routers/7600-series-routers/eos-eol-notice-c51-735517-fr.html'
p648
aS'/c/en/us/products/collateral/routers/7600-series-routers/eos-eol-notice-c51-736652-fr.html'
p649
aS'/c/en/us/products/collateral/routers/7600-series-routers/eos-eol-notice-c51-735575-fr.html'
p650
aS'/c/en/us/products/collateral/routers/7600-series-routers/eos-eol-notice-c51-735519-fr.html'
p651
aS'/c/en/us/products/collateral/routers/7200-series-routers/prod_end-of-life_notice09186a008032d6ad.html'
p652
aS'/c/en/us/products/collateral/routers/7200-series-routers/prod_end-of-life_notice09186a008032d41c.html'
p653
aS'/c/en/us/products/collateral/routers/7200-series-routers/prod_end-of-life_notice09186a0080092106.html'
p654
aS'/c/en/us/products/collateral/routers/7200-series-routers/prod_end-of-life_notice0900aecd80712df5.html'
p655
aS'/c/en/us/products/collateral/routers/7200-series-routers/prod_end-of-life_notice0900aecd806b8c96.html'
p656
aS'/c/en/us/products/collateral/routers/7200-series-routers/prod_end-of-life_notice0900aecd8067dd9f.html'
p657
aS'/c/en/us/products/collateral/routers/7200-series-routers/prod_end-of-life_notice0900aecd8067a439.html'
p658
aS'/c/en/us/products/collateral/routers/7200-series-routers/prod_end-of-life_notice0900aecd80653d66.html'
p659
aS'/c/en/us/products/collateral/routers/7200-series-routers/prod_end-of-life_notice0900aecd80627e5e.html'
p660
aS'/c/en/us/products/collateral/routers/7200-series-routers/prod_end-of-life_notice0900aecd805aeb3f.html'
p661
aS'/c/en/us/products/collateral/routers/7200-series-routers/prod_end-of-life_notice0900aecd8051a7c4.html'
p662
aS'/c/en/us/products/collateral/routers/7200-series-routers/prod_end-of-life_notice0900aecd804a02df.html'
p663
aS'/c/en/us/products/collateral/routers/7200-series-routers/prod_end-of-life_notice0900aecd802f91fd.html'
p664
aS'/c/en/us/products/collateral/routers/7200-series-routers/prod_end-of-life_notice0900aecd802b652d.html'
p665
aS'/c/en/us/products/collateral/routers/7200-series-routers/prod_end-of-life_notice0900aecd8029feb1.html'
p666
aS'/c/en/us/products/collateral/routers/7200-series-routers/prod_end-of-life_notice0900aecd8020bacc.html'
p667
aS'/c/en/us/products/collateral/routers/7200-series-routers/prod_end-of-life_notice0900aecd80205278.html'
p668
aS'/c/en/us/products/collateral/routers/7200-series-routers/prod_end-of-life_notice0900aecd801dae46.html'
p669
aS'/c/en/us/products/collateral/routers/7200-series-routers/prod_end-of-life_notice0900aecd801bd0f7.html'
p670
aS'/c/en/us/products/collateral/routers/7200-series-routers/end_of_life_notice_c51-578052.html'
p671
aS'/c/en/us/products/collateral/routers/7206-router/prod_end-of-life_notice09186a008032d592.html'
p672
aS'/c/en/us/products/collateral/routers/7200-series-routers/end_of_life_notice_c51-501483.html'
p673
aS'/c/en/us/products/collateral/routers/7200-series-routers/prod_end-of-life_notice0900aecd8067dd93.html'
p674
aS'/c/en/us/products/collateral/routers/7200-series-routers/prod_end-of-life_notice0900aecd8049f19f.html'
p675
aS'/c/en/us/products/collateral/routers/7200-series-routers/prod_end-of-life_notice0900aecd8049f17a.html'
p676
aS'/c/en/us/products/collateral/routers/7200-series-routers/prod_end-of-life_notice0900aecd801e90af.html'
p677
aS'/c/en/us/products/collateral/routers/asr-1000-series-aggregation-services-routers/eos-eol-notice-c51-737081.html'
p678
aS'/c/en/us/products/collateral/routers/asr-1000-series-aggregation-services-routers/eos-eol-notice-c51-736752.html'
p679
aS'/c/en/us/products/collateral/routers/asr-1000-series-aggregation-services-routers/eos-eol-notice-c51-736431.html'
p680
aS'/c/en/us/products/collateral/routers/asr-1000-series-aggregation-services-routers/eos-eol-notice-c51-734572.html'
p681
aS'/c/en/us/products/collateral/routers/asr-1000-series-aggregation-services-routers/eos-eol-notice-c51-735307.html'
p682
aS'/c/en/us/products/collateral/routers/asr-1000-series-aggregation-services-routers/eos-eol-notice-c51-734263.html'
p683
aS'/c/en/us/products/collateral/routers/asr-1000-series-aggregation-services-routers/eos-eol-notice-c51-734193.html'
p684
aS'/c/en/us/products/collateral/routers/asr-1000-series-aggregation-services-routers/eos-eol-notice-c51-733479.html'
p685
aS'/c/en/us/products/collateral/routers/asr-1000-series-aggregation-services-routers/eos-eol-notice-c51-732203.html'
p686
aS'/c/en/us/products/collateral/routers/asr-1000-series-aggregation-services-routers/eos-eol-notice-c51-732167.html'
p687
aS'/c/en/us/products/collateral/routers/asr-1000-series-aggregation-services-routers/eos-eol-notice-c51-730604.html'
p688
aS'/c/en/us/products/collateral/routers/asr-1000-series-aggregation-services-routers/end_of_life_notice_c51-728847.html'
p689
aS'/c/en/us/products/collateral/routers/asr-1000-series-aggregation-services-routers/end_of_life_notice_c51-728416.html'
p690
aS'/c/en/us/products/collateral/routers/asr-1000-series-aggregation-services-routers/end_of_life_notice_c51-727629.html'
p691
aS'/c/en/us/products/collateral/routers/asr-1000-series-aggregation-services-routers/end_of_life_notice_c51-722396.html'
p692
aS'/c/en/us/products/collateral/routers/asr-1000-series-aggregation-services-routers/end_of_life_notice_c51-645778.html'
p693
aS'/c/en/us/products/collateral/routers/asr-1000-series-aggregation-services-routers/end_of_life_notice_c51-585627.html'
p694
aS'/c/en/us/products/collateral/routers/asr-1000-series-aggregation-services-routers/end_of_life_notice_c51-636700.html'
p695
aS'/c/en/us/products/collateral/routers/asr-1000-series-aggregation-services-routers/end_of_life_notice_c51-717501.html'
p696
aS'/c/en/us/products/collateral/routers/asr-1000-series-aggregation-services-routers/end_of_life_notice_c51-709635.html'
p697
aS'/c/en/us/products/collateral/routers/asr-1000-series-aggregation-services-routers/end_of_life_notice_c51-708773.html'
p698
aS'/c/en/us/products/collateral/routers/asr-1000-series-aggregation-services-routers/end_of_life_notice_c51-519525.html'
p699
aS'/c/en/us/products/collateral/application-networking-services/wide-area-application-services-waas-software/end-of-life-notice-c51-729862.html'
p700
aS'/c/en/us/products/collateral/application-networking-services/wide-area-application-services-waas-software/end_of_life_notice_c51-729231.html'
p701
aS'/c/en/us/products/collateral/application-networking-services/wide-area-application-services-waas-software/end_of_life_notice_c51-729046.html'
p702
aS'/c/en/us/products/collateral/application-networking-services/wide-area-application-services-waas-software/eos-eol-notice-c51-730604.html'
p703
aS'/c/en/us/products/collateral/routers/asr-1000-series-aggregation-services-routers/eos-eol-notice-c51-737081-fr.html'
p704
aS'/c/en/us/products/collateral/routers/asr-1000-series-aggregation-services-routers/eos-eol-notice-c51-736752-fr.html'
p705
aS'/c/en/us/products/collateral/routers/asr-1000-series-aggregation-services-routers/eos-eol-notice-c51-736431-fr.html'
p706
aS'/c/en/us/products/collateral/routers/asr-1000-series-aggregation-services-routers/eos-eol-notice-c51-735307-fr.html'
p707
aS'/c/en/us/products/collateral/routers/carrier-routing-system/eos-eol-notice-c51-735752.html'
p708
aS'/c/en/us/products/collateral/routers/carrier-routing-system/eos-eol-notice-c51-734974.html'
p709
aS'/c/en/us/products/collateral/routers/carrier-routing-system/eos-eol-notice-c51-734903.html'
p710
aS'/c/en/us/products/collateral/routers/carrier-routing-system/eos-eol-notice-c51-734902.html'
p711
aS'/c/en/us/products/collateral/switches/catalyst-3750-series-switches/end_of_life_notice_c51-729275.html'
p712
aS'/c/en/us/products/collateral/routers/12000-series-routers/prod_end-of-life_notice0900aecd8055b332.html'
p713
aS'/c/en/us/products/collateral/routers/carrier-routing-system/eos-eol-notice-c51-733448.html'
p714
aS'/c/en/us/products/collateral/routers/carrier-routing-system/eos-eol-notice-c51-733363.html'
p715
aS'/c/en/us/products/collateral/routers/carrier-routing-system/eos-eol-notice-c51-732923.html'
p716
aS'/c/en/us/products/collateral/routers/carrier-routing-system/eos-eol-notice-c51-732924.html'
p717
aS'/c/en/us/products/collateral/routers/carrier-routing-system/eos-eol-notice-c51-732690.html'
p718
aS'/c/en/us/products/collateral/switches/catalyst-3750-series-switches/end_of_life_notice_c51-729276.html'
p719
aS'/c/en/us/products/collateral/routers/carrier-routing-system/eos-eol-notice-c51-731301.html'
p720
aS'/c/en/us/products/collateral/routers/1800-series-integrated-services-routers-isr/end_of_life_notice_c51-713299.html'
p721
aS'/c/en/us/products/collateral/routers/carrier-routing-system/end_of_life_notice_c51-716759.html'
p722
aS'/c/en/us/products/collateral/routers/carrier-routing-system/prod_end-of-life_notice0900aecd806d49f2.html'
p723
aS'/c/en/us/products/collateral/routers/carrier-routing-system/prod_end-of-life_notice0900aecd8063f6b3.html'
p724
aS'/c/en/us/products/collateral/routers/carrier-routing-system/prod_end-of-life_notice0900aecd804f6b2f.html'
p725
aS'/c/en/us/products/collateral/routers/carrier-routing-system/prod_end-of-life_notice0900aecd80630c42.html'
p726
aS'/c/en/us/products/collateral/routers/carrier-routing-system/prod_end-of-life_notice0900aecd804f01aa.html'
p727
aS'/c/en/us/products/collateral/routers/carrier-routing-system/end_of_life_notice_c51-728076.html'
p728
aS'/c/en/us/products/collateral/routers/carrier-routing-system/end_of_life_notice_c51-727822.html'
p729
aS'/c/en/us/products/collateral/routers/carrier-routing-system/end_of_life_notice_c51-726515.html'
p730
aS'/c/en/us/products/collateral/routers/carrier-routing-system/end_of_life_notice_c51-717499.html'
p731
aS'/c/en/us/products/collateral/routers/carrier-routing-system/end_of_life_notice_c51-713529.html'
p732
aS'/c/en/us/products/collateral/routers/carrier-routing-system/end_of_life_notice_c51-713299.html'
p733
aS'/c/en/us/products/collateral/routers/carrier-routing-system/end_of_life_notice_c51-695817.html'
p734
aS'/c/en/us/products/collateral/routers/carrier-routing-system/end_of_life_notice_c51-722057.html'
p735
aS'/c/en/us/products/collateral/routers/carrier-routing-system/end_of_life_notice_c51-717497.html'
p736
aS'/c/en/us/products/collateral/routers/carrier-routing-system/end_of_life_notice_c51-713530.html'
p737
aS'/c/en/us/products/collateral/routers/carrier-routing-system/end_of_life_notice_c51-685648.html'
p738
aS'/c/en/us/products/collateral/routers/carrier-routing-system/end_of_life_notice_c51-695816.html'
p739
aS'/c/en/us/products/collateral/routers/carrier-routing-system/end_of_life_notice_c51-685444.html'
p740
aS'/c/en/us/products/collateral/routers/carrier-routing-system/end_of_life_notice_c51-685653.html'
p741
aS'/c/en/us/products/collateral/routers/carrier-routing-system/end_of_life_notice_c51-681333.html'
p742
aS'/c/en/us/products/collateral/routers/carrier-routing-system/end_of_life_notice_c51-464994.html'
p743
aS'/c/en/us/products/collateral/switches/catalyst-3750-series-switches/eos-eol-notice-c51-730124.html'
p744
aS'/c/en/us/products/collateral/switches/catalyst-3750-series-switches/eos-eol-notice-c51-730091.html'
p745
aS'/c/en/us/products/collateral/switches/catalyst-3750-series-switches/eos-eol-notice-c51-730090.html'
p746
aS'/c/en/us/products/collateral/routers/carrier-routing-system/eos-eol-notice-c51-734073.html'
p747
aS'/c/en/us/products/collateral/routers/carrier-routing-system/eos-eol-notice-c51-733551.html'
p748
aS'/c/en/us/products/collateral/routers/carrier-routing-system/eos-eol-notice-c51-733787.html'
p749
aS'/c/en/us/products/collateral/routers/carrier-routing-system/eos-eol-notice-c51-733553.html'
p750
aS'/c/en/us/products/collateral/routers/carrier-routing-system/eos-eol-notice-c51-733552.html'
p751
aS'/c/en/us/products/collateral/routers/carrier-routing-system/eos-eol-notice-c51-735752-fr.html'
p752
aS'/c/en/us/products/collateral/routers/carrier-routing-system/eos-eol-notice-c51-734974-fr.html'
p753
aS'/c/en/us/products/collateral/routers/carrier-routing-system/eos-eol-notice-c51-734902-fr.html'
p754
aS'/c/en/us/products/collateral/routers/carrier-routing-system/eos-eol-notice-c51-734903-fr.html'
p755
aS'/c/en/us/products/collateral/switches/catalyst-6500-series-switches/eos-eol-notice-c51-737192.html'
p756
aS'/c/en/us/products/collateral/switches/catalyst-6500-series-switches/eos-eol-notice-c51-735926.html'
p757
aS'/c/en/us/products/collateral/routers/7600-series-routers/prod_end-of-life_notice0900aecd803f00c3.html'
p758
aS'/c/en/us/products/collateral/switches/mgx-8800-series-switches/end_of_life_notice_c51-729557.html'
p759
aS'/c/en/us/products/collateral/switches/catalyst-6500-series-switches/eos-eol-notice-c51-734057.html'
p760
aS'/c/en/us/products/collateral/switches/catalyst-6500-series-switches/eos-eol-notice-c51-733297.html'
p761
aS'/c/en/us/products/collateral/switches/catalyst-6500-series-switches/prod_end-of-life_notice0900aecd8035ece4.html'
p762
aS'/c/en/us/products/collateral/switches/catalyst-6500-series-switches/prod_end-of-life_notice09186a008023401e.html'
p763
aS'/c/en/us/products/collateral/switches/catalyst-6500-series-switches/prod_end-of-life_notice0900aecd80699e1a.html'
p764
aS'/c/en/us/products/collateral/switches/catalyst-6500-series-switches/prod_end-of-life_notice0900aecd80699ddb.html'
p765
aS'/c/en/us/products/collateral/switches/catalyst-6500-series-switches/prod_end-of-life_notice0900aecd80565c60.html'
p766
aS'/c/en/us/products/collateral/switches/catalyst-6500-series-switches/prod_end-of-life_notice0900aecd8054d461.html'
p767
aS'/c/en/us/products/collateral/switches/catalyst-6500-series-switches/prod_end-of-life_notice0900aecd804e1180.html'
p768
aS'/c/en/us/products/collateral/switches/catalyst-6500-series-switches/prod_end-of-life_notice0900aecd8046e4ae.html'
p769
aS'/c/en/us/products/collateral/switches/catalyst-6500-series-switches/prod_end-of-life_notice0900aecd80423d311.html'
p770
aS'/c/en/us/products/collateral/switches/catalyst-6500-series-switches/prod_end-of-life_notice0900aecd803e378d.html'
p771
aS'/c/en/us/products/collateral/switches/catalyst-6500-series-switches/prod_end-of-life_notice0900aecd800fd91f.html'
p772
aS'/c/en/us/products/collateral/switches/catalyst-6500-series-switches/prod_end-of-life_notice0900aecd801a8c6e.html'
p773
aS'/c/en/us/products/collateral/switches/catalyst-6500-series-switches/prod_end-of-life_notice0900aecd806d9953.html'
p774
aS'/c/en/us/products/collateral/switches/catalyst-6500-series-switches/prod_end-of-life_notice0900aecd806b9e49.html'
p775
aS'/c/en/us/products/collateral/switches/catalyst-6500-series-switches/prod_end-of-life_notice0900aecd8069af87.html'
p776
aS'/c/en/us/products/collateral/switches/catalyst-6500-series-switches/prod_end-of-life_notice0900aecd8067a132.html'
p777
aS'/c/en/us/products/collateral/switches/catalyst-6500-series-switches/prod_end-of-life_notice0900aecd80646c15.html'
p778
aS'/c/en/us/products/collateral/switches/catalyst-6500-series-switches/prod_end-of-life_notice0900aecd805f990d.html'
p779
aS'/c/en/us/products/collateral/switches/catalyst-6500-series-switches/prod_end-of-life_notice0900aecd805eaa8d.html'
p780
aS'/c/en/us/products/collateral/switches/catalyst-6500-series-switches/prod_end-of-life_notice0900aecd8042428a.html'
p781
aS'/c/en/us/products/collateral/switches/catalyst-6500-series-switches/prod_end-of-life_notice0900aecd8039f961.html'
p782
aS'/c/en/us/products/collateral/switches/catalyst-6500-series-switches/prod_end-of-life_notice0900aecd802e87bb.html'
p783
aS'/c/en/us/products/collateral/switches/catalyst-6500-series-switches/prod_end-of-life_notice0900aecd802c2f7b.html'
p784
aS'/c/en/us/products/collateral/switches/catalyst-6500-series-switches/prod_end-of-life_notice0900aecd8017a5d1.html'
p785
aS'/c/en/us/products/collateral/switches/catalyst-4500-series-switches/prod_end-of-life_notice0900aecd8016fb77.html'
p786
aS'/c/en/us/products/collateral/switches/catalyst-6500-series-switches/eos-eol-notice-c51-730610.html'
p787
aS'/c/en/us/products/collateral/switches/mgx-8800-series-switches/eos-eol-notice-c51-730610.html'
p788
aS'/c/en/us/products/collateral/switches/catalyst-6500-series-switches/prod_end-of-life_notice0900aecd80423d31.html'
p789
aS'/c/en/us/products/collateral/switches/mgx-8800-series-switches/end-of-life-notice-c51-729742.html'
p790
aS'/c/en/us/products/collateral/switches/mgx-8800-series-switches/end_of_life_notice_c51-729149.html'
p791
aS'/c/en/us/products/collateral/switches/catalyst-6500-series-switches/prod_end-of-life_notice0900aecd80646c9c.html'
p792
aS'/c/en/us/products/collateral/interfaces-modules/catalyst-6500-series-network-analysis-module-nam-3/eos-eol-notice-c51-731695.html'
p793
aS'/c/en/us/products/collateral/switches/catalyst-6500-series-switches/eos-eol-notice-c51-737192-fr.html'
p794
aS'/c/en/us/products/collateral/switches/catalyst-6500-series-switches/eos-eol-notice-c51-735926-fr.html'
p795
aS'/c/en/us/products/collateral/switches/nexus-7000-series-switches/eos-eol-notice-c51-737194.html'
p796
aS'/c/en/us/products/collateral/switches/nexus-7000-series-switches/eos-eol-notice-c51-733847.html'
p797
aS'/c/en/us/products/collateral/switches/nexus-7000-series-switches/eos-eol-notice-c51-736157.html'
p798
aS'/c/en/us/products/collateral/switches/nexus-7000-series-switches/eos-eol-notice-c51-733434.html'
p799
aS'/c/en/us/products/collateral/switches/nexus-7000-series-switches/end_of_life_notice_c51-729278.html'
p800
aS'/c/en/us/products/collateral/switches/nexus-7000-series-switches/end_of_life_notice_c51-729281.html'
p801
aS'/c/en/us/products/collateral/switches/nexus-7000-series-switches/end_of_life_notice_c51-729279.html'
p802
aS'/c/en/us/products/collateral/switches/nexus-7000-series-switches/eos-eol-notice-c51-731703.html'
p803
aS'/c/en/us/products/collateral/switches/nexus-7000-series-switches/eos-eol-notice-c51-731702.html'
p804
aS'/c/en/us/products/collateral/switches/nexus-7000-series-switches/end_of_life_notice_c51-729282.html'
p805
aS'/c/en/us/products/collateral/switches/nexus-7000-series-switches/eos-eol-notice-c51-737194-fr.html'
p806
aS'/c/en/us/products/collateral/switches/nexus-7000-series-switches/eos-eol-notice-c51-736157-fr.html'
p807
aS'/c/en/us/products/collateral/routers/800-series-industrial-routers/eos-eol-notice-c51-737500.html'
p808
aS'/c/en/us/products/collateral/routers/800-series-industrial-routers/eos-eol-notice-c51-737500-fr.html'
p809
aS'/c/en/us/products/collateral/routers/5900-series-embedded-services-routers/end_of_life_notice_c51-704256.html'
p810
aS'/c/en/us/products/collateral/routers/mwr-1900-mobile-wireless-routers/end_of_life_notice_c51-729113.html'
p811
aS'/c/en/us/products/collateral/routers/mwr-1900-mobile-wireless-routers/end_of_life_notice_c51-610675.html'
p812
aS'/c/en/us/products/collateral/routers/mwr-1900-mobile-wireless-routers/end_of_life_notice_c51-552183.html'
p813
aS'/c/en/us/products/collateral/routers/mwr-1900-mobile-wireless-routers/end_of_life_notice_c51-546387.html'
p814
aS'/c/en/us/products/collateral/routers/mwr-1900-mobile-wireless-routers/end_of_life_notice_c51-576777.html'
p815
aS'/c/en/us/products/collateral/routers/1900-mobile-wireless-edge-router/prod_end-of-life_notice09186a008032d544.html'
p816
aS'/c/en/us/products/collateral/routers/carrier-routing-system/eos-eol-notice-c51-735752.html'
p817
aS'/c/en/us/products/collateral/routers/carrier-routing-system/eos-eol-notice-c51-734974.html'
p818
aS'/c/en/us/products/collateral/routers/carrier-routing-system/eos-eol-notice-c51-734903.html'
p819
aS'/c/en/us/products/collateral/routers/carrier-routing-system/eos-eol-notice-c51-734902.html'
p820
aS'/c/en/us/products/collateral/switches/catalyst-3750-series-switches/end_of_life_notice_c51-729275.html'
p821
aS'/c/en/us/products/collateral/routers/12000-series-routers/prod_end-of-life_notice0900aecd8055b332.html'
p822
aS'/c/en/us/products/collateral/routers/carrier-routing-system/eos-eol-notice-c51-733448.html'
p823
aS'/c/en/us/products/collateral/routers/carrier-routing-system/eos-eol-notice-c51-733363.html'
p824
aS'/c/en/us/products/collateral/routers/carrier-routing-system/eos-eol-notice-c51-732923.html'
p825
aS'/c/en/us/products/collateral/routers/carrier-routing-system/eos-eol-notice-c51-732924.html'
p826
aS'/c/en/us/products/collateral/routers/carrier-routing-system/eos-eol-notice-c51-732690.html'
p827
aS'/c/en/us/products/collateral/switches/catalyst-3750-series-switches/end_of_life_notice_c51-729276.html'
p828
aS'/c/en/us/products/collateral/routers/carrier-routing-system/eos-eol-notice-c51-731301.html'
p829
aS'/c/en/us/products/collateral/routers/1800-series-integrated-services-routers-isr/end_of_life_notice_c51-713299.html'
p830
aS'/c/en/us/products/collateral/routers/carrier-routing-system/end_of_life_notice_c51-716759.html'
p831
aS'/c/en/us/products/collateral/routers/carrier-routing-system/prod_end-of-life_notice0900aecd806d49f2.html'
p832
aS'/c/en/us/products/collateral/routers/carrier-routing-system/prod_end-of-life_notice0900aecd8063f6b3.html'
p833
aS'/c/en/us/products/collateral/routers/carrier-routing-system/prod_end-of-life_notice0900aecd804f6b2f.html'
p834
aS'/c/en/us/products/collateral/routers/carrier-routing-system/prod_end-of-life_notice0900aecd80630c42.html'
p835
aS'/c/en/us/products/collateral/routers/carrier-routing-system/prod_end-of-life_notice0900aecd804f01aa.html'
p836
aS'/c/en/us/products/collateral/routers/carrier-routing-system/end_of_life_notice_c51-728076.html'
p837
aS'/c/en/us/products/collateral/routers/carrier-routing-system/end_of_life_notice_c51-727822.html'
p838
aS'/c/en/us/products/collateral/routers/carrier-routing-system/end_of_life_notice_c51-726515.html'
p839
aS'/c/en/us/products/collateral/routers/carrier-routing-system/end_of_life_notice_c51-717499.html'
p840
aS'/c/en/us/products/collateral/routers/carrier-routing-system/end_of_life_notice_c51-713529.html'
p841
aS'/c/en/us/products/collateral/routers/carrier-routing-system/end_of_life_notice_c51-713299.html'
p842
aS'/c/en/us/products/collateral/routers/carrier-routing-system/end_of_life_notice_c51-695817.html'
p843
aS'/c/en/us/products/collateral/routers/carrier-routing-system/end_of_life_notice_c51-722057.html'
p844
aS'/c/en/us/products/collateral/routers/carrier-routing-system/end_of_life_notice_c51-717497.html'
p845
aS'/c/en/us/products/collateral/routers/carrier-routing-system/end_of_life_notice_c51-713530.html'
p846
aS'/c/en/us/products/collateral/routers/carrier-routing-system/end_of_life_notice_c51-685648.html'
p847
aS'/c/en/us/products/collateral/routers/carrier-routing-system/end_of_life_notice_c51-695816.html'
p848
aS'/c/en/us/products/collateral/routers/carrier-routing-system/end_of_life_notice_c51-685444.html'
p849
aS'/c/en/us/products/collateral/routers/carrier-routing-system/end_of_life_notice_c51-685653.html'
p850
aS'/c/en/us/products/collateral/routers/carrier-routing-system/end_of_life_notice_c51-681333.html'
p851
aS'/c/en/us/products/collateral/routers/carrier-routing-system/end_of_life_notice_c51-464994.html'
p852
aS'/c/en/us/products/collateral/switches/catalyst-3750-series-switches/eos-eol-notice-c51-730124.html'
p853
aS'/c/en/us/products/collateral/switches/catalyst-3750-series-switches/eos-eol-notice-c51-730091.html'
p854
aS'/c/en/us/products/collateral/switches/catalyst-3750-series-switches/eos-eol-notice-c51-730090.html'
p855
aS'/c/en/us/products/collateral/routers/carrier-routing-system/eos-eol-notice-c51-734073.html'
p856
aS'/c/en/us/products/collateral/routers/carrier-routing-system/eos-eol-notice-c51-733551.html'
p857
aS'/c/en/us/products/collateral/routers/carrier-routing-system/eos-eol-notice-c51-733787.html'
p858
aS'/c/en/us/products/collateral/routers/carrier-routing-system/eos-eol-notice-c51-733553.html'
p859
aS'/c/en/us/products/collateral/routers/carrier-routing-system/eos-eol-notice-c51-733552.html'
p860
aS'/c/en/us/products/collateral/routers/carrier-routing-system/eos-eol-notice-c51-735752-fr.html'
p861
aS'/c/en/us/products/collateral/routers/carrier-routing-system/eos-eol-notice-c51-734974-fr.html'
p862
aS'/c/en/us/products/collateral/routers/carrier-routing-system/eos-eol-notice-c51-734902-fr.html'
p863
aS'/c/en/us/products/collateral/routers/carrier-routing-system/eos-eol-notice-c51-734903-fr.html'
p864
aS'/c/en/us/products/collateral/routers/12000-series-routers/eos-eol-notice-c51-732418.html'
p865
aS'/c/en/us/products/collateral/routers/12000-series-routers/eos-eol-notice-c51-731400.html'
p866
aS'/c/en/us/products/collateral/routers/12000-series-routers/end_of_life_notice_c51-456801.html'
p867
aS'/c/en/us/products/collateral/routers/12000-series-routers/end_of_life_notice_c51-729553.html'
p868
aS'/c/en/us/products/collateral/routers/12000-series-routers/end_of_life_notice_c51-729486.html'
p869
aS'/c/en/us/products/collateral/routers/12000-series-routers/end_of_life_notice_c51-728673.html'
p870
aS'/c/en/us/products/collateral/routers/12000-series-routers/end_of_life_notice_c51-726751.html'
p871
aS'/c/en/us/products/collateral/routers/12000-series-routers/end_of_life_notice_c51-726750.html'
p872
aS'/c/en/us/products/collateral/routers/12000-series-routers/end_of_life_notice_c51-726754.html'
p873
aS'/c/en/us/products/collateral/routers/12000-series-routers/end_of_life_notice_c51-722051.html'
p874
aS'/c/en/us/products/collateral/routers/12000-series-routers/end_of_life_notice_c51-719826.html'
p875
aS'/c/en/us/products/collateral/routers/12000-series-routers/end_of_life_notice_c51-713527.html'
p876
aS'/c/en/us/products/collateral/routers/12000-series-routers/end_of_life_notice_c51-713520.html'
p877
aS'/c/en/us/products/collateral/routers/12000-series-routers/end_of_life_notice_c51-706737.html'
p878
aS'/c/en/us/products/collateral/routers/12000-series-routers/end_of_life_notice_c51-683932.html'
p879
aS'/c/en/us/products/collateral/routers/12000-series-routers/end_of_life_notice_c51-687139.html'
p880
aS'/c/en/us/products/collateral/routers/12000-series-routers/end_of_life_notice_c51-613201.html'
p881
aS'/c/en/us/products/collateral/routers/12000-series-routers/prod_end-of-life_notice0900aecd803f04b1.html'
p882
aS'/c/en/us/products/collateral/routers/12000-series-routers/prod_end-of-life_notice0900aecd8061ceea.html'
p883
aS'/c/en/us/products/collateral/routers/12000-series-routers/end_of_life_notice_c51-458862.html'
p884
aS'/c/en/us/products/collateral/routers/12000-series-routers/end_of_life_notice_c51-476872.html'
p885
aS'/c/en/us/products/collateral/routers/12000-series-routers/prod_end-of-life_notice0900aecd80591c63.html'
p886
aS'/c/en/us/products/collateral/routers/12000-series-routers/prod_end-of-life_notice09186a00801fc894.html'
p887
aS'/c/en/us/products/collateral/routers/12000-series-routers/prod_end-of-life_notice0900aecd803fc513.html'
p888
aS'/c/en/us/products/collateral/routers/12000-series-routers/prod_end-of-life_notice0900aecd80465004.html'
p889
aS'/c/en/us/products/collateral/routers/12000-series-routers/prod_end-of-life_notice09186a008014ee56.html'
p890
aS'/c/en/us/products/collateral/routers/12000-series-routers/prod_end-of-life_notice09186a00801e7f89.html'
p891
aS'/c/en/us/products/collateral/routers/12000-series-routers/prod_end-of-life_notice0900aecd804923e2.html'
p892
aS'/c/en/us/products/collateral/routers/12000-series-routers/prod_end-of-life_notice0900aecd80592110.html'
p893
aS'/c/en/us/products/collateral/routers/12000-series-routers/end_of_life_notice_cisco_12000_series_sip_400_memory_option.html'
p894
aS'/c/en/us/products/collateral/routers/12000-series-routers/prod_end-of-life_notice0900aecd807259d6.html'
p895
aS'/c/en/us/products/collateral/routers/12000-series-routers/prod_end-of-life_notice0900aecd806fa63d.html'
p896
aS'/c/en/us/products/collateral/routers/12000-series-routers/prod_end-of-life_notice0900aecd80718de2.html'
p897
aS'/c/en/us/products/collateral/routers/12000-series-routers/prod_end-of-life_notice0900aecd80707e76.html'
p898
aS'/c/en/us/products/collateral/routers/12000-series-routers/prod_end-of-life_notice0900aecd806fa1f3.html'
p899
aS'/c/en/us/products/collateral/routers/12000-series-routers/prod_end-of-life_notice0900aecd806cdcac.html'
p900
aS'/c/en/us/products/collateral/routers/12000-series-routers/prod_end-of-life_notice0900aecd80687ff3.html'
p901
aS'/c/en/us/products/collateral/routers/12000-series-routers/prod_end-of-life_notice0900aecd8065de0b.html'
p902
aS'/c/en/us/products/collateral/routers/12000-series-routers/prod_end-of-life_notice0900aecd80653ec9.html'
p903
aS'/c/en/us/products/collateral/routers/12000-series-routers/prod_end-of-life_notice0900aecd80622109.html'
p904
aS'/c/en/us/products/collateral/routers/12000-series-routers/prod_end-of-life_notice0900aecd8060c308.html'
p905
aS'/c/en/us/products/collateral/routers/12000-series-routers/prod_end-of-life_notice0900aecd80613a34.html'
p906
aS'/c/en/us/products/collateral/routers/12000-series-routers/prod_end-of-life_notice0900aecd805cc5be.html'
p907
aS'/c/en/us/products/collateral/routers/12000-series-routers/prod_end-of-life_notice0900aecd800f71a3.html'
p908
aS'/c/en/us/products/collateral/routers/12000-series-routers/prod_end-of-life_notice0900aecd805c0f3e.html'
p909
aS'/c/en/us/products/collateral/routers/12000-series-routers/prod_end-of-life_notice0900aecd8055b332.html'
p910
aS'/c/en/us/products/collateral/routers/12000-series-routers/prod_end-of-life_notice0900aecd80545882.html'
p911
aS'/c/en/us/products/collateral/routers/12000-series-routers/prod_end-of-life_notice0900aecd80507e5e.html'
p912
aS'/c/en/us/products/collateral/routers/12000-series-routers/prod_end-of-life_notice0900aecd80504398.html'
p913
aS'/c/en/us/products/collateral/routers/12000-series-routers/prod_end-of-life_notice0900aecd804fa54d.html'
p914
aS'/c/en/us/products/collateral/routers/12000-series-routers/prod_end-of-life_notice0900aecd804f7161.html'
p915
aS'/c/en/us/products/collateral/routers/12000-series-routers/prod_end-of-life_notice0900aecd80497297.html'
p916
aS'/c/en/us/products/collateral/routers/12000-series-routers/prod_end-of-life_notice0900aecd80497279.html'
p917
aS'/c/en/us/products/collateral/routers/12000-series-routers/prod_end-of-life_notice0900aecd8049728a.html'
p918
aS'/c/en/us/products/collateral/routers/12000-series-routers/prod_end-of-life_notice0900aecd80497f8f.html'
p919
aS'/c/en/us/products/collateral/routers/12410-router/prod_end-of-life_notice0900aecd802d82d4.html'
p920
aS'/c/en/us/products/collateral/interfaces-modules/line-cards/prod_end-of-life_notice0900aecd802b1977.html'
p921
aS'/c/en/us/products/collateral/routers/12000-series-routers/prod_end-of-life_notice0900aecd801bcf6e.html'
p922
aS'/c/en/us/products/collateral/routers/12000-series-routers/prod_end-of-life_notice0900aecd801972c3.html'
p923
aS'/c/en/us/products/collateral/routers/12000-series-routers/prod_end-of-life_notice0900aecd8016c395.html'
p924
aS'/c/en/us/products/collateral/routers/12000-series-routers/prod_end-of-life_notice0900aecd800f6d23.html'
p925
aS'/c/en/us/products/collateral/routers/7600-series-routers/end_of_life_notice_c51-706109.html'
p926
aS'/c/en/us/products/collateral/routers/7600-series-routers/eos-eol-notice-c51-735517.html'
p927
aS'/c/en/us/products/collateral/routers/7600-series-routers/eos-eol-notice-c51-736652.html'
p928
aS'/c/en/us/products/collateral/routers/7600-series-routers/eos-eol-notice-c51-735575.html'
p929
aS'/c/en/us/products/collateral/routers/7600-series-routers/eos-eol-notice-c51-735519.html'
p930
aS'/c/en/us/products/collateral/routers/7600-series-routers/eos-eol-notice-c51-734314.html'
p931
aS'/c/en/us/products/collateral/routers/7600-series-routers/prod_end-of-life_notice0900aecd807396bc.html'
p932
aS'/c/en/us/products/collateral/routers/7600-series-routers/prod_end-of-life_notice0900aecd806b0baa.html'
p933
aS'/c/en/us/products/collateral/routers/7600-series-routers/prod_end-of-life_notice0900aecd805aa9a9.html'
p934
aS'/c/en/us/products/collateral/routers/7600-series-routers/prod_end-of-life_notice0900aecd803f00c3.html'
p935
aS'/c/en/us/products/collateral/routers/7600-series-routers/prod_end-of-life_notice0900aecd80328197.html'
p936
aS'/c/en/us/products/collateral/routers/7600-series-routers/prod_end-of-life_notice0900aecd803040e3.html'
p937
aS'/c/en/us/products/collateral/routers/7600-series-routers/prod_end-of-life_notice0900aecd802e9c57.html'
p938
aS'/c/en/us/products/collateral/routers/7600-series-routers/prod_end-of-life_notice0900aecd80226dc5.html'
p939
aS'/c/en/us/products/collateral/routers/7600-series-routers/prod_end-of-life_notice0900aecd8022200b.html'
p940
aS'/c/en/us/products/collateral/routers/7600-series-routers/end_of_life_notice_c51-729277.html'
p941
aS'/c/en/us/products/collateral/routers/7600-series-routers/end_of_life_notice_c51-729112.html'
p942
aS'/c/en/us/products/collateral/routers/7600-series-routers/end_of_life_notice_c51-726516.html'
p943
aS'/c/en/us/products/collateral/routers/7600-series-routers/end_of_life_notice_c51-676996.html'
p944
aS'/c/en/us/products/collateral/routers/7600-series-routers/end_of_life_notice_c51-557053.html'
p945
aS'/c/en/us/products/collateral/routers/7600-series-routers/end_of_life_notice_c51-507197.html'
p946
aS'/c/en/us/products/collateral/routers/7600-series-routers/eos-eol-notice-c51-734158.html'
p947
aS'/c/en/us/products/collateral/switches/catalyst-6500-series-switches/eos-eol-notice-c51-733297.html'
p948
aS'/c/en/us/products/collateral/routers/7600-series-routers/eos-eol-notice-c51-733555.html'
p949
aS'/c/en/us/products/collateral/routers/7600-series-routers/eos-eol-notice-c51-733146.html'
p950
aS'/c/en/us/products/collateral/routers/7600-series-routers/eos-eol-notice-c51-732960.html'
p951
aS'/c/en/us/products/collateral/routers/7600-series-routers/eos-eol-notice-c51-732057.html'
p952
aS'/c/en/us/products/collateral/routers/7600-series-routers/eos-eol-notice-c51-731089.html'
p953
aS'/c/en/us/products/collateral/routers/7600-series-routers/eos-eol-notice-c51-731088.html'
p954
aS'/c/en/us/products/collateral/routers/7600-series-routers/eos-eol-notice-c51-731062.html'
p955
aS'/c/en/us/products/collateral/switches/catalyst-6500-series-switches/prod_end-of-life_notice0900aecd806b9e49.html'
p956
aS'/c/en/us/products/collateral/routers/7600-series-routers/end_of_life_notice_c51-728933.html'
p957
aS'/c/en/us/products/collateral/routers/7600-series-routers/prod_end-of-life_notice0900aecd807396c3.html'
p958
aS'/c/en/us/products/collateral/routers/7600-series-routers/eos-eol-notice-c51-735517-fr.html'
p959
aS'/c/en/us/products/collateral/routers/7600-series-routers/eos-eol-notice-c51-736652-fr.html'
p960
aS'/c/en/us/products/collateral/routers/7600-series-routers/eos-eol-notice-c51-735575-fr.html'
p961
aS'/c/en/us/products/collateral/routers/7600-series-routers/eos-eol-notice-c51-735519-fr.html'
p962
aS'/c/en/us/products/collateral/routers/7500-series-routers/prod_end-of-life_notice0900aecd8029c16b.html'
p963
aS'/c/en/us/products/collateral/routers/7500-series-routers/end_of_life_notice_c51-610614.html'
p964
aS'/c/en/us/products/collateral/routers/7200-series-routers/prod_end-of-life_notice0900aecd8020bacc.html'
p965
aS'/c/en/us/products/collateral/routers/7500-series-routers/prod_end-of-life_notice0900aecd8058ffe4.html'
p966
aS'/c/en/us/products/collateral/routers/7500-series-routers/prod_end-of-life_notice0900aecd802eaa28.html'
p967
aS'/c/en/us/products/collateral/routers/7500-series-routers/prod_end-of-life_notice0900aecd8029d222.html'
p968
aS'/c/en/us/products/collateral/routers/7500-series-routers/prod_end-of-life_notice0900aecd801ef207.html'
p969
aS'/c/en/us/products/collateral/routers/7500-series-routers/prod_end-of-life_notice0900aecd80105ed6.html'
p970
aS'/c/en/us/products/collateral/routers/7500-series-routers/prod_end-of-life_notice09186a00801dcba7.html'
p971
aS'/c/en/us/products/collateral/routers/7500-series-routers/prod_end-of-life_notice09186a0080113d2f.html'
p972
aS'/c/en/us/products/collateral/routers/7300-series-routers/prod_end-of-life_notice0900aecd802cd30f.html'
p973
aS'/c/en/us/products/collateral/routers/7300-series-routers/prod_end-of-life_notice0900aecd802cd31c.html'
p974
aS'/c/en/us/products/collateral/routers/7300-series-routers/prod_end-of-life_notice0900aecd802689d7.html'
p975
aS'/c/en/us/products/collateral/routers/7300-series-routers/prod_end-of-life_notice0900aecd800f6189.html'
p976
aS'/c/en/us/products/collateral/routers/7300-series-routers/prod_end-of-life_notice0900aecd800f6189.html'
p977
aS'/c/en/us/products/collateral/routers/7304-router/prod_end-of-life_notice0900aecd804a02ff.html'
p978
aS'/c/en/us/products/collateral/routers/7304-router/prod_end-of-life_notice0900aecd80481a49.html'
p979
aS'/c/en/us/products/collateral/routers/7304-router/prod_end-of-life_notice0900aecd804a02f8.html'
p980
aS'/c/en/us/products/collateral/routers/7200-series-routers/end_of_life_notice_c51-501483.html'
p981
aS'/c/en/us/products/collateral/routers/7300-series-routers/prod_end-of-life_notice0900aecd806d8ab6.html'
p982
aS'/c/en/us/products/collateral/routers/7200-series-routers/prod_end-of-life_notice0900aecd8067dd93.html'
p983
aS'/c/en/us/products/collateral/routers/7200-series-routers/prod_end-of-life_notice0900aecd8067dd9f.html'
p984
aS'/c/en/us/products/collateral/routers/7200-series-routers/prod_end-of-life_notice0900aecd8067a439.html'
p985
aS'/c/en/us/products/collateral/routers/7300-series-routers/prod_end-of-life_notice0900aecd804d6179.html'
p986
aS'/c/en/us/products/collateral/routers/7200-series-routers/prod_end-of-life_notice0900aecd804a02df.html'
p987
aS'/c/en/us/products/collateral/routers/7200-series-routers/prod_end-of-life_notice0900aecd8049f19f.html'
p988
aS'/c/en/us/products/collateral/routers/7300-series-routers/prod_end-of-life_notice0900aecd80356fce.html'
p989
aS'/c/en/us/products/collateral/routers/7300-series-routers/prod_end-of-life_notice0900aecd80357025.html'
p990
aS'/c/en/us/products/collateral/routers/7300-series-routers/prod_end-of-life_notice0900aecd80356ff1.html'
p991
aS'/c/en/us/products/collateral/routers/7300-series-routers/prod_end-of-life_notice0900aecd80356fd5.html'
p992
aS'/c/en/us/products/collateral/routers/7300-series-routers/prod_end-of-life_notice0900aecd8033e962.html'
p993
aS'/c/en/us/products/collateral/routers/7300-series-routers/prod_end-of-life_notice0900aecd8031b789.html'
p994
aS'/c/en/us/products/collateral/routers/7600-series-routers/end_of_life_notice_c51-574179.html'
p995
aS'/c/en/us/products/collateral/routers/7200-series-routers/prod_end-of-life_notice09186a008032d6ad.html'
p996
aS'/c/en/us/products/collateral/routers/7200-series-routers/prod_end-of-life_notice09186a008032d41c.html'
p997
aS'/c/en/us/products/collateral/routers/7200-series-routers/prod_end-of-life_notice09186a0080092106.html'
p998
aS'/c/en/us/products/collateral/routers/7200-series-routers/prod_end-of-life_notice0900aecd80712df5.html'
p999
aS'/c/en/us/products/collateral/routers/7200-series-routers/prod_end-of-life_notice0900aecd806b8c96.html'
p1000
aS'/c/en/us/products/collateral/routers/7200-series-routers/prod_end-of-life_notice0900aecd8067dd9f.html'
p1001
aS'/c/en/us/products/collateral/routers/7200-series-routers/prod_end-of-life_notice0900aecd8067a439.html'
p1002
aS'/c/en/us/products/collateral/routers/7200-series-routers/prod_end-of-life_notice0900aecd80653d66.html'
p1003
aS'/c/en/us/products/collateral/routers/7200-series-routers/prod_end-of-life_notice0900aecd80627e5e.html'
p1004
aS'/c/en/us/products/collateral/routers/7200-series-routers/prod_end-of-life_notice0900aecd805aeb3f.html'
p1005
aS'/c/en/us/products/collateral/routers/7200-series-routers/prod_end-of-life_notice0900aecd8051a7c4.html'
p1006
aS'/c/en/us/products/collateral/routers/7200-series-routers/prod_end-of-life_notice0900aecd804a02df.html'
p1007
aS'/c/en/us/products/collateral/routers/7200-series-routers/prod_end-of-life_notice0900aecd802f91fd.html'
p1008
aS'/c/en/us/products/collateral/routers/7200-series-routers/prod_end-of-life_notice0900aecd802b652d.html'
p1009
aS'/c/en/us/products/collateral/routers/7200-series-routers/prod_end-of-life_notice0900aecd8029feb1.html'
p1010
aS'/c/en/us/products/collateral/routers/7200-series-routers/prod_end-of-life_notice0900aecd8020bacc.html'
p1011
aS'/c/en/us/products/collateral/routers/7200-series-routers/prod_end-of-life_notice0900aecd80205278.html'
p1012
aS'/c/en/us/products/collateral/routers/7200-series-routers/prod_end-of-life_notice0900aecd801dae46.html'
p1013
aS'/c/en/us/products/collateral/routers/7200-series-routers/prod_end-of-life_notice0900aecd801bd0f7.html'
p1014
aS'/c/en/us/products/collateral/routers/7200-series-routers/end_of_life_notice_c51-578052.html'
p1015
aS'/c/en/us/products/collateral/routers/7206-router/prod_end-of-life_notice09186a008032d592.html'
p1016
aS'/c/en/us/products/collateral/routers/7200-series-routers/end_of_life_notice_c51-501483.html'
p1017
aS'/c/en/us/products/collateral/routers/7200-series-routers/prod_end-of-life_notice0900aecd8067dd93.html'
p1018
aS'/c/en/us/products/collateral/routers/7200-series-routers/prod_end-of-life_notice0900aecd8049f19f.html'
p1019
aS'/c/en/us/products/collateral/routers/7200-series-routers/prod_end-of-life_notice0900aecd8049f17a.html'
p1020
aS'/c/en/us/products/collateral/routers/7200-series-routers/prod_end-of-life_notice0900aecd801e90af.html'
p1021
aS'/c/en/us/products/collateral/routers/asr-9000-series-aggregation-services-routers/eos-eol-notice-c51-736940.html'
p1022
aS'/c/en/us/products/collateral/routers/asr-9000-series-aggregation-services-routers/eos-eol-notice-c51-734174.html'
p1023
aS'/c/en/us/products/collateral/routers/asr-9000-series-aggregation-services-routers/eos-eol-notice-c51-734029.html'
p1024
aS'/c/en/us/products/collateral/routers/asr-9000-series-aggregation-services-routers/eos-eol-notice-c51-731882.html'
p1025
aS'/c/en/us/products/collateral/routers/asr-9000-series-aggregation-services-routers/eos-eol-notice-c51-733321.html'
p1026
aS'/c/en/us/products/routers/asr-9000-series-aggregation-services-routers/eos-eol-notice-c51-731288.html'
p1027
aS'/c/en/us/products/collateral/routers/asr-9000-series-aggregation-services-routers/end_of_life_notice_c51-721386.html'
p1028
aS'/c/en/us/products/collateral/routers/asr-9000-series-aggregation-services-routers/eos-eol-notice-c51-736940-fr.html'
p1029
aS'/c/en/us/products/collateral/routers/asr-1000-series-aggregation-services-routers/eos-eol-notice-c51-737081.html'
p1030
aS'/c/en/us/products/collateral/routers/asr-1000-series-aggregation-services-routers/eos-eol-notice-c51-736752.html'
p1031
aS'/c/en/us/products/collateral/routers/asr-1000-series-aggregation-services-routers/eos-eol-notice-c51-736431.html'
p1032
aS'/c/en/us/products/collateral/routers/asr-1000-series-aggregation-services-routers/eos-eol-notice-c51-734572.html'
p1033
aS'/c/en/us/products/collateral/routers/asr-1000-series-aggregation-services-routers/eos-eol-notice-c51-735307.html'
p1034
aS'/c/en/us/products/collateral/routers/asr-1000-series-aggregation-services-routers/eos-eol-notice-c51-734263.html'
p1035
aS'/c/en/us/products/collateral/routers/asr-1000-series-aggregation-services-routers/eos-eol-notice-c51-734193.html'
p1036
aS'/c/en/us/products/collateral/routers/asr-1000-series-aggregation-services-routers/eos-eol-notice-c51-733479.html'
p1037
aS'/c/en/us/products/collateral/routers/asr-1000-series-aggregation-services-routers/eos-eol-notice-c51-732203.html'
p1038
aS'/c/en/us/products/collateral/routers/asr-1000-series-aggregation-services-routers/eos-eol-notice-c51-732167.html'
p1039
aS'/c/en/us/products/collateral/routers/asr-1000-series-aggregation-services-routers/eos-eol-notice-c51-730604.html'
p1040
aS'/c/en/us/products/collateral/routers/asr-1000-series-aggregation-services-routers/end_of_life_notice_c51-728847.html'
p1041
aS'/c/en/us/products/collateral/routers/asr-1000-series-aggregation-services-routers/end_of_life_notice_c51-728416.html'
p1042
aS'/c/en/us/products/collateral/routers/asr-1000-series-aggregation-services-routers/end_of_life_notice_c51-727629.html'
p1043
aS'/c/en/us/products/collateral/routers/asr-1000-series-aggregation-services-routers/end_of_life_notice_c51-722396.html'
p1044
aS'/c/en/us/products/collateral/routers/asr-1000-series-aggregation-services-routers/end_of_life_notice_c51-645778.html'
p1045
aS'/c/en/us/products/collateral/routers/asr-1000-series-aggregation-services-routers/end_of_life_notice_c51-585627.html'
p1046
aS'/c/en/us/products/collateral/routers/asr-1000-series-aggregation-services-routers/end_of_life_notice_c51-636700.html'
p1047
aS'/c/en/us/products/collateral/routers/asr-1000-series-aggregation-services-routers/end_of_life_notice_c51-717501.html'
p1048
aS'/c/en/us/products/collateral/routers/asr-1000-series-aggregation-services-routers/end_of_life_notice_c51-709635.html'
p1049
aS'/c/en/us/products/collateral/routers/asr-1000-series-aggregation-services-routers/end_of_life_notice_c51-708773.html'
p1050
aS'/c/en/us/products/collateral/routers/asr-1000-series-aggregation-services-routers/end_of_life_notice_c51-519525.html'
p1051
aS'/c/en/us/products/collateral/application-networking-services/wide-area-application-services-waas-software/end-of-life-notice-c51-729862.html'
p1052
aS'/c/en/us/products/collateral/application-networking-services/wide-area-application-services-waas-software/end_of_life_notice_c51-729231.html'
p1053
aS'/c/en/us/products/collateral/application-networking-services/wide-area-application-services-waas-software/end_of_life_notice_c51-729046.html'
p1054
aS'/c/en/us/products/collateral/application-networking-services/wide-area-application-services-waas-software/eos-eol-notice-c51-730604.html'
p1055
aS'/c/en/us/products/collateral/routers/asr-1000-series-aggregation-services-routers/eos-eol-notice-c51-737081-fr.html'
p1056
aS'/c/en/us/products/collateral/routers/asr-1000-series-aggregation-services-routers/eos-eol-notice-c51-736752-fr.html'
p1057
aS'/c/en/us/products/collateral/routers/asr-1000-series-aggregation-services-routers/eos-eol-notice-c51-736431-fr.html'
p1058
aS'/c/en/us/products/collateral/routers/asr-1000-series-aggregation-services-routers/eos-eol-notice-c51-735307-fr.html'
p1059
aS'/c/en/us/products/collateral/routers/asr-920-series-aggregation-services-router/eos-eol-notice-c51-737189.html'
p1060
aS'/c/en/us/products/collateral/routers/asr-920-series-aggregation-services-router/eos-eol-notice-c51-736335.html'
p1061
aS'/c/en/us/products/collateral/routers/asr-920-series-aggregation-services-router/eos-eol-notice-c51-734759.html'
p1062
aS'/c/en/us/products/collateral/routers/asr-920-series-aggregation-services-router/eos-eol-notice-c51-733935.html'
p1063
aS'/c/en/us/products/collateral/routers/asr-920-series-aggregation-services-router/eos-eol-notice-c51-737189-fr.html'
p1064
aS'/c/en/us/products/collateral/routers/asr-920-series-aggregation-services-router/eos-eol-notice-c51-736335-fr.html'
p1065
aS'/c/en/us/products/collateral/routers/asr-920-series-aggregation-services-router/eos-eol-notice-c51-734759-fr.html'
p1066
aS'/c/en/us/products/collateral/routers/asr-901-series-aggregation-services-routers/eos-eol-notice-c51-737188.html'
p1067
aS'/c/en/us/products/collateral/routers/asr-901-series-aggregation-services-routers/eos-eol-notice-c51-736334.html'
p1068
aS'/c/en/us/products/collateral/routers/asr-901-series-aggregation-services-routers/eos-eol-notice-c51-734223.html'
p1069
aS'/c/en/us/products/collateral/routers/asr-901-series-aggregation-services-routers/eos-eol-notice-c51-733934.html'
p1070
aS'/c/en/us/products/collateral/routers/asr-901-series-aggregation-services-routers/end-of-life-notice-c51-729773.html'
p1071
aS'/c/en/us/products/collateral/routers/asr-901-series-aggregation-services-routers/eos-eol-notice-c51-737188-fr.html'
p1072
aS'/c/en/us/products/collateral/routers/asr-901-series-aggregation-services-routers/eos-eol-notice-c51-736334-fr.html'
p1073
aS'/c/en/us/products/collateral/routers/asr-903-series-aggregation-services-routers/eos-eol-notice-c51-737190.html'
p1074
aS'/c/en/us/products/collateral/routers/asr-903-series-aggregation-services-routers/eos-eol-notice-c51-736336.html'
p1075
aS'/c/en/us/products/collateral/routers/asr-903-series-aggregation-services-routers/eos-eol-notice-c51-736323.html'
p1076
aS'/c/en/us/products/collateral/routers/asr-903-series-aggregation-services-routers/eos-eol-notice-c51-734758.html'
p1077
aS'/c/en/us/products/collateral/routers/asr-903-series-aggregation-services-routers/eos-eol-notice-c51-731424.html'
p1078
aS'/c/en/us/products/collateral/routers/asr-903-series-aggregation-services-routers/eos-eol-notice-c51-734224.html'
p1079
aS'/c/en/us/products/collateral/routers/asr-903-series-aggregation-services-routers/eos-eol-notice-c51-733936.html'
p1080
aS'/c/en/us/products/collateral/routers/asr-903-series-aggregation-services-routers/eos-eol-notice-c51-730871.html'
p1081
aS'/c/en/us/products/collateral/routers/asr-903-series-aggregation-services-routers/end_of_life_notice_c51-728171.html'
p1082
aS'/c/en/us/products/collateral/routers/asr-903-series-aggregation-services-routers/end_of_life_notice_c51-727606.html'
p1083
aS'/c/en/us/products/collateral/routers/asr-903-series-aggregation-services-routers/end_of_life_notice_c51-726194.html'
p1084
aS'/c/en/us/products/collateral/routers/asr-903-series-aggregation-services-routers/end_of_life_notice_c51-726190.html'
p1085
aS'/c/en/us/products/collateral/routers/asr-903-series-aggregation-services-routers/end_of_life_notice_c51-711402.html'
p1086
aS'/c/en/us/products/collateral/routers/asr-903-series-aggregation-services-routers/eos-eol-notice-c51-737190-fr.html'
p1087
aS'/c/en/us/products/collateral/routers/asr-903-series-aggregation-services-routers/eos-eol-notice-c51-736323-fr.html'
p1088
aS'/c/en/us/products/collateral/routers/asr-903-series-aggregation-services-routers/eos-eol-notice-c51-736336-fr.html'
p1089
aS'/c/en/us/products/collateral/routers/asr-903-series-aggregation-services-routers/eos-eol-notice-c51-734758-fr.html'
p1090
aS'/c/en/us/products/collateral/routers/carrier-routing-system/end_of_life_notice_c51-464994.html'
p1091
aS'/c/en/us/products/collateral/routers/12000-series-routers/prod_end-of-life_notice0900aecd8055b332.html'
p1092
aS'/c/en/us/products/collateral/routers/2900-series-integrated-services-routers-isr/eos-eol-notice-c51-737143.html'
p1093
aS'/c/en/us/products/collateral/routers/2900-series-integrated-services-routers-isr/eos-eol-notice-c51-731925.html'
p1094
aS'/c/en/us/products/collateral/routers/2900-series-integrated-services-routers-isr/eos-eol-notice-c51-730943.html'
p1095
aS'/c/en/us/products/collateral/routers/2900-series-integrated-services-routers-isr/end_of_life_notice_c51-722602.html'
p1096
aS'/c/en/us/products/collateral/routers/2900-series-integrated-services-routers-isr/end_of_life_notice_c51-729131.html'
p1097
aS'/c/en/us/products/collateral/interfaces-modules/modem-cards/end_of_life_notice_c51-726696.html'
p1098
aS'/c/en/us/products/collateral/routers/2900-series-integrated-services-routers-isr/eos-eol-notice-c51-730946.html'
p1099
aS'/c/en/us/products/collateral/routers/1900-series-integrated-services-routers-isr/eos-eol-notice-c51-737501.html'
p1100
aS'/c/en/us/products/collateral/routers/1900-series-integrated-services-routers-isr/eos-eol-notice-c51-732095.html'
p1101
aS'/c/en/us/products/collateral/routers/1900-series-integrated-services-routers-isr/eos-eol-notice-c51-731924.html'
p1102
aS'/c/en/us/products/collateral/routers/1900-series-integrated-services-routers-isr/eos-eol-notice-c51-731014.html'
p1103
aS'/c/en/us/products/collateral/routers/1900-series-integrated-services-routers-isr/eos-eol-notice-c51-730945.html'
p1104
aS'/c/en/us/products/collateral/routers/1900-series-integrated-services-routers-isr/end_of_life_notice_c51-713617.html'
p1105
aS'/c/en/us/products/collateral/routers/1900-series-integrated-services-routers-isr/end_of_life_notice_c51-711895.html'
p1106
aS'/c/en/us/products/collateral/routers/800-series-routers/eos-eol-notice-c51-737365.html'
p1107
aS'/c/en/us/products/collateral/routers/800-series-routers/eos-eol-notice-c51-737356.html'
p1108
aS'/c/en/us/products/collateral/routers/800-series-routers/eos-eol-notice-c51-735923.html'
p1109
aS'/c/en/us/products/collateral/routers/800-series-routers/eos-eol-notice-c51-735847.html'
p1110
aS'/c/en/us/products/collateral/routers/2800-series-integrated-services-routers-isr/eos-eol-notice-c51-734302.html'
p1111
aS'/c/en/us/products/collateral/routers/800-series-routers/eos-eol-notice-c51-733569.html'
p1112
aS'/c/en/us/products/collateral/routers/800-series-routers/prod_end-of-life_notice0900aecd80338765.html'
p1113
aS'/c/en/us/products/collateral/routers/800-series-routers/eos-eol-notice-c51-734171.html'
p1114
aS'/c/en/us/products/collateral/routers/soho-70-series-routers/prod_end-of-life_notice09186a008017fe7f.html'
p1115
aS'/c/en/us/products/collateral/routers/800-series-routers/prod_end-of-life_notice0900aecd805b174f.html'
p1116
aS'/c/en/us/products/collateral/routers/800-series-routers/prod_end-of-life_notice0900aecd805a7fee.html'
p1117
aS'/c/en/us/products/collateral/routers/800-series-routers/prod_end-of-life_notice0900aecd8039c6af.html'
p1118
aS'/c/en/us/products/collateral/routers/800-series-routers/end_of_life_notice_c51-728144.html'
p1119
aS'/c/en/us/products/collateral/routers/800-series-routers/end_of_life_notice_c51-727950.html'
p1120
aS'/c/en/us/products/collateral/routers/800-series-routers/end_of_life_notice_c51-727949.html'
p1121
aS'/c/en/us/products/collateral/routers/800-series-routers/end_of_life_notice_c51-714534.html'
p1122
aS'/c/en/us/products/collateral/routers/800-series-routers/end_of_life_notice_c51-714532.html'
p1123
aS'/c/en/us/products/collateral/routers/800-series-routers/end_of_life_notice_c51-714322.html'
p1124
aS'/c/en/us/products/collateral/routers/800-series-routers/end_of_life_notice_c51-714321.html'
p1125
aS'/c/en/us/products/collateral/routers/800-series-routers/end_of_life_notice_c51-714320.html'
p1126
aS'/c/en/us/products/collateral/routers/800-series-routers/end_of_life_notice_c51-714000.html'
p1127
aS'/c/en/us/products/collateral/routers/800-series-routers/end_of_life_notice_c51-713658.html'
p1128
aS'/c/en/us/products/collateral/routers/800-series-routers/end_of_life_notice_c51-713613.html'
p1129
aS'/c/en/us/products/collateral/routers/800-series-routers/end_of_life_notice_c51-713515.html'
p1130
aS'/c/en/us/products/collateral/routers/800-series-routers/end_of_life_notice_c51-713392.html'
p1131
aS'/c/en/us/products/collateral/routers/800-series-routers/end_of_life_notice_c51-712174.html'
p1132
aS'/c/en/us/products/collateral/routers/800-series-routers/end_of_life_notice_c51-711893.html'
p1133
aS'/c/en/us/products/collateral/routers/800-series-routers/end_of_life_notice_c51-709985.html'
p1134
aS'/c/en/us/products/collateral/routers/800-series-routers/end_of_life_notice_c51-704404.html'
p1135
aS'/c/en/us/products/collateral/routers/800-series-routers/end_of_life_notice_c51-704401.html'
p1136
aS'/c/en/us/products/collateral/routers/800-series-routers/end_of_life_notice_c51-704399.html'
p1137
aS'/c/en/us/products/collateral/routers/800-series-routers/eos-eol-notice-c51-731103.html'
p1138
aS'/c/en/us/products/collateral/routers/800-series-routers/eos-eol-notice-c51-731579.html'
p1139
aS'/c/en/us/products/collateral/routers/800-series-routers/eos-eol-notice-c51-731559.html'
p1140
aS'/c/en/us/products/collateral/routers/800-series-routers/eos-eol-notice-c51-730682.html'
p1141
aS'/c/en/us/products/collateral/routers/800-series-routers/eos-eol-notice-c51-730681.html'
p1142
aS'/c/en/us/products/collateral/routers/800-series-routers/eos-eol-notice-c51-731015.html'
p1143
aS'/c/en/us/products/collateral/routers/800-series-routers/eos-eol-notice-c51-731104.html'
p1144
aS'/c/en/us/products/collateral/routers/800-series-routers/eos-eol-notice-c51-730680.html'
p1145
aS'/c/en/us/products/collateral/routers/800-series-routers/eos-eol-notice-c51-730320.html'
p1146
aS'/c/en/us/products/collateral/routers/800-series-routers/eos-eol-notice-c51-730319.html'
p1147
aS'/c/en/us/products/collateral/routers/800-series-routers/eos-eol-notice-c51-730248.html'
p1148
aS'/c/en/us/products/collateral/routers/800-series-routers/eos-eol-notice-c51-730247.html'
p1149
aS'/c/en/us/products/collateral/routers/800-series-routers/end_of_life_notice_c51-712178.html'
p1150
aS'/c/en/us/products/collateral/routers/800-series-routers/prod_end-of-life_notice0900aecd804d5abd.html'
p1151
aS'/c/en/us/products/collateral/routers/800-series-routers/eos-eol-notice-c51-735923-fr.html'
p1152
aS'/c/en/us/products/collateral/routers/800-series-routers/eos-eol-notice-c51-735847-fr.html'
p1153
aS'/c/en/us/products/collateral/routers/small-business-rv-series-routers/eos-eol-notice-c51-737578.html'
p1154
aS'/c/en/us/products/collateral/routers/small-business-rv-series-routers/eos-eol-notice-c51-733326.html'
p1155
aS'/c/en/us/products/collateral/routers/small-business-rv-series-routers/eos-eol-notice-c51-733327.html'
p1156
aS'/c/en/us/products/collateral/routers/small-business-rv-series-routers/eos-eol-notice-c51-736888.html'
p1157
aS'/c/en/us/products/collateral/routers/small-business-rv-series-routers/eos-eol-notice-c51-736749.html'
p1158
aS'/c/en/us/products/collateral/routers/small-business-rv-series-routers/eos-eol-notice-c51-736069.html'
p1159
aS'/c/en/us/products/collateral/routers/wrvs4400n-wireless-n-gigabit-security-router-vpn-v2-0/end_of_life_notice_c51-578189.html'
p1160
aS'/c/en/us/products/collateral/routers/wrvs4400n-wireless-n-gigabit-security-router-vpn-v2-0/end_of_life_notice_c51-714313.html'
p1161
aS'/c/en/us/products/collateral/routers/small-business-rv-series-routers/end_of_life_notice_c51-602388.html'
p1162
aS'/c/en/us/products/collateral/routers/rvs4000-4-port-gigabit-security-router-vpn/end_of_life_notice_c51-717521.html'
p1163
aS'/c/en/us/products/collateral/routers/rvs4000-4-port-gigabit-security-router-vpn/end_of_life_notice_c51-714312.html'
p1164
aS'/c/en/us/products/collateral/routers/rvs4000-4-port-gigabit-security-router-vpn/end_of_life_notice_c51-694005.html'
p1165
aS'/c/en/us/products/collateral/routers/rvs4000-4-port-gigabit-security-router-vpn/end_of_life_notice_c51-577239.html'
p1166
aS'/c/en/us/products/collateral/routers/rvl200-4-port-ssl-ipsec-vpn-router/end_of_life_notice_c51-659241.html'
p1167
aS'/c/en/us/products/collateral/routers/rvl200-4-port-ssl-ipsec-vpn-router/end_of_life_notice_C51-578147.html'
p1168
aS'/c/en/us/products/collateral/routers/small-business-rv-series-routers/eos-eol-notice-c51-733305.html'
p1169
aS'/c/en/us/products/collateral/routers/small-business-rv-series-routers/eos-eol-notice-c51-732975.html'
p1170
aS'/c/en/us/products/collateral/routers/small-business-rv-series-routers/eos-eol-notice-c51-732974.html'
p1171
aS'/c/en/us/products/collateral/routers/wrv200-wireless-g-vpn-router-rangebooster/end_of_life_notice_c51-588924.html'
p1172
aS'/c/en/us/products/collateral/routers/wrv210-wireless-g-vpn-router-rangebooster/end_of_life_notice_c51-685436.html'
p1173
aS'/c/en/us/products/collateral/routers/rv016-multi-wan-vpn-router/end_of_life_notice_c51-578190.html'
p1174
aS'/c/en/us/products/collateral/routers/small-business-rv-series-routers/end_of_life_notice_c51-602385.html'
p1175
aS'/c/en/us/products/routers/small-business-rv-series-routers/end_of_life_notice_c51-546889.html'
p1176
aS'/c/en/us/products/collateral/routers/small-business-rv-series-routers/eos-eol-notice-c51-733326-fr.html'
p1177
aS'/c/en/us/products/collateral/routers/small-business-rv-series-routers/eos-eol-notice-c51-733327-fr.html'
p1178
aS'/c/en/us/products/collateral/routers/small-business-rv-series-routers/eos-eol-notice-c51-736749-fr.html'
p1179
aS'/c/en/us/products/collateral/routers/small-business-rv-series-routers/eos-eol-notice-c51-736069-fr.html'
p1180
aS'/c/en/us/products/collateral/routers/asr-1000-series-aggregation-services-routers/eos-eol-notice-c51-736431.html'
p1181
aS'/c/en/us/products/collateral/routers/asr-1000-series-aggregation-services-routers/eos-eol-notice-c51-736431-fr.html'
p1182
aS'/c/en/us/products/collateral/routers/7600-series-routers/end_of_life_notice_c51-706109.html'
p1183
aS'/c/en/us/products/collateral/routers/7600-series-routers/eos-eol-notice-c51-735517.html'
p1184
aS'/c/en/us/products/collateral/routers/7600-series-routers/eos-eol-notice-c51-736652.html'
p1185
aS'/c/en/us/products/collateral/routers/7600-series-routers/eos-eol-notice-c51-735575.html'
p1186
aS'/c/en/us/products/collateral/routers/7600-series-routers/eos-eol-notice-c51-735519.html'
p1187
aS'/c/en/us/products/collateral/routers/7600-series-routers/eos-eol-notice-c51-734314.html'
p1188
aS'/c/en/us/products/collateral/routers/7600-series-routers/prod_end-of-life_notice0900aecd807396bc.html'
p1189
aS'/c/en/us/products/collateral/routers/7600-series-routers/prod_end-of-life_notice0900aecd806b0baa.html'
p1190
aS'/c/en/us/products/collateral/routers/7600-series-routers/prod_end-of-life_notice0900aecd805aa9a9.html'
p1191
aS'/c/en/us/products/collateral/routers/7600-series-routers/prod_end-of-life_notice0900aecd803f00c3.html'
p1192
aS'/c/en/us/products/collateral/routers/7600-series-routers/prod_end-of-life_notice0900aecd80328197.html'
p1193
aS'/c/en/us/products/collateral/routers/7600-series-routers/prod_end-of-life_notice0900aecd803040e3.html'
p1194
aS'/c/en/us/products/collateral/routers/7600-series-routers/prod_end-of-life_notice0900aecd802e9c57.html'
p1195
aS'/c/en/us/products/collateral/routers/7600-series-routers/prod_end-of-life_notice0900aecd80226dc5.html'
p1196
aS'/c/en/us/products/collateral/routers/7600-series-routers/prod_end-of-life_notice0900aecd8022200b.html'
p1197
aS'/c/en/us/products/collateral/routers/7600-series-routers/end_of_life_notice_c51-729277.html'
p1198
aS'/c/en/us/products/collateral/routers/7600-series-routers/end_of_life_notice_c51-729112.html'
p1199
aS'/c/en/us/products/collateral/routers/7600-series-routers/end_of_life_notice_c51-726516.html'
p1200
aS'/c/en/us/products/collateral/routers/7600-series-routers/end_of_life_notice_c51-676996.html'
p1201
aS'/c/en/us/products/collateral/routers/7600-series-routers/end_of_life_notice_c51-557053.html'
p1202
aS'/c/en/us/products/collateral/routers/7600-series-routers/end_of_life_notice_c51-507197.html'
p1203
aS'/c/en/us/products/collateral/routers/7600-series-routers/eos-eol-notice-c51-734158.html'
p1204
aS'/c/en/us/products/collateral/switches/catalyst-6500-series-switches/eos-eol-notice-c51-733297.html'
p1205
aS'/c/en/us/products/collateral/routers/7600-series-routers/eos-eol-notice-c51-733555.html'
p1206
aS'/c/en/us/products/collateral/routers/7600-series-routers/eos-eol-notice-c51-733146.html'
p1207
aS'/c/en/us/products/collateral/routers/7600-series-routers/eos-eol-notice-c51-732960.html'
p1208
aS'/c/en/us/products/collateral/routers/7600-series-routers/eos-eol-notice-c51-732057.html'
p1209
aS'/c/en/us/products/collateral/routers/7600-series-routers/eos-eol-notice-c51-731089.html'
p1210
aS'/c/en/us/products/collateral/routers/7600-series-routers/eos-eol-notice-c51-731088.html'
p1211
aS'/c/en/us/products/collateral/routers/7600-series-routers/eos-eol-notice-c51-731062.html'
p1212
aS'/c/en/us/products/collateral/switches/catalyst-6500-series-switches/prod_end-of-life_notice0900aecd806b9e49.html'
p1213
aS'/c/en/us/products/collateral/routers/7600-series-routers/end_of_life_notice_c51-728933.html'
p1214
aS'/c/en/us/products/collateral/routers/7600-series-routers/prod_end-of-life_notice0900aecd807396c3.html'
p1215
aS'/c/en/us/products/collateral/routers/7600-series-routers/eos-eol-notice-c51-735517-fr.html'
p1216
aS'/c/en/us/products/collateral/routers/7600-series-routers/eos-eol-notice-c51-736652-fr.html'
p1217
aS'/c/en/us/products/collateral/routers/7600-series-routers/eos-eol-notice-c51-735575-fr.html'
p1218
aS'/c/en/us/products/collateral/routers/7600-series-routers/eos-eol-notice-c51-735519-fr.html'
p1219
aS'/c/en/us/products/collateral/routers/7500-series-routers/prod_end-of-life_notice0900aecd8029c16b.html'
p1220
aS'/c/en/us/products/collateral/routers/7500-series-routers/end_of_life_notice_c51-610614.html'
p1221
aS'/c/en/us/products/collateral/routers/7200-series-routers/prod_end-of-life_notice0900aecd8020bacc.html'
p1222
aS'/c/en/us/products/collateral/routers/7500-series-routers/prod_end-of-life_notice0900aecd8058ffe4.html'
p1223
aS'/c/en/us/products/collateral/routers/7500-series-routers/prod_end-of-life_notice0900aecd802eaa28.html'
p1224
aS'/c/en/us/products/collateral/routers/7500-series-routers/prod_end-of-life_notice0900aecd8029d222.html'
p1225
aS'/c/en/us/products/collateral/routers/7500-series-routers/prod_end-of-life_notice0900aecd801ef207.html'
p1226
aS'/c/en/us/products/collateral/routers/7500-series-routers/prod_end-of-life_notice0900aecd80105ed6.html'
p1227
aS'/c/en/us/products/collateral/routers/7500-series-routers/prod_end-of-life_notice09186a00801dcba7.html'
p1228
aS'/c/en/us/products/collateral/routers/7500-series-routers/prod_end-of-life_notice09186a0080113d2f.html'
p1229
aS'/c/en/us/products/collateral/routers/7300-series-routers/prod_end-of-life_notice0900aecd802cd30f.html'
p1230
aS'/c/en/us/products/collateral/routers/7300-series-routers/prod_end-of-life_notice0900aecd802cd31c.html'
p1231
aS'/c/en/us/products/collateral/routers/7300-series-routers/prod_end-of-life_notice0900aecd802689d7.html'
p1232
aS'/c/en/us/products/collateral/routers/7300-series-routers/prod_end-of-life_notice0900aecd800f6189.html'
p1233
aS'/c/en/us/products/collateral/routers/7300-series-routers/prod_end-of-life_notice0900aecd800f6189.html'
p1234
aS'/c/en/us/products/collateral/routers/7304-router/prod_end-of-life_notice0900aecd804a02ff.html'
p1235
aS'/c/en/us/products/collateral/routers/7304-router/prod_end-of-life_notice0900aecd80481a49.html'
p1236
aS'/c/en/us/products/collateral/routers/7304-router/prod_end-of-life_notice0900aecd804a02f8.html'
p1237
aS'/c/en/us/products/collateral/routers/7200-series-routers/end_of_life_notice_c51-501483.html'
p1238
aS'/c/en/us/products/collateral/routers/7300-series-routers/prod_end-of-life_notice0900aecd806d8ab6.html'
p1239
aS'/c/en/us/products/collateral/routers/7200-series-routers/prod_end-of-life_notice0900aecd8067dd93.html'
p1240
aS'/c/en/us/products/collateral/routers/7200-series-routers/prod_end-of-life_notice0900aecd8067dd9f.html'
p1241
aS'/c/en/us/products/collateral/routers/7200-series-routers/prod_end-of-life_notice0900aecd8067a439.html'
p1242
aS'/c/en/us/products/collateral/routers/7300-series-routers/prod_end-of-life_notice0900aecd804d6179.html'
p1243
aS'/c/en/us/products/collateral/routers/7200-series-routers/prod_end-of-life_notice0900aecd804a02df.html'
p1244
aS'/c/en/us/products/collateral/routers/7200-series-routers/prod_end-of-life_notice0900aecd8049f19f.html'
p1245
aS'/c/en/us/products/collateral/routers/7300-series-routers/prod_end-of-life_notice0900aecd80356fce.html'
p1246
aS'/c/en/us/products/collateral/routers/7300-series-routers/prod_end-of-life_notice0900aecd80357025.html'
p1247
aS'/c/en/us/products/collateral/routers/7300-series-routers/prod_end-of-life_notice0900aecd80356ff1.html'
p1248
aS'/c/en/us/products/collateral/routers/7300-series-routers/prod_end-of-life_notice0900aecd80356fd5.html'
p1249
aS'/c/en/us/products/collateral/routers/7300-series-routers/prod_end-of-life_notice0900aecd8033e962.html'
p1250
aS'/c/en/us/products/collateral/routers/7300-series-routers/prod_end-of-life_notice0900aecd8031b789.html'
p1251
aS'/c/en/us/products/collateral/routers/7600-series-routers/end_of_life_notice_c51-574179.html'
p1252
aS'/c/en/us/products/collateral/routers/7200-series-routers/prod_end-of-life_notice09186a008032d6ad.html'
p1253
aS'/c/en/us/products/collateral/routers/7200-series-routers/prod_end-of-life_notice09186a008032d41c.html'
p1254
aS'/c/en/us/products/collateral/routers/7200-series-routers/prod_end-of-life_notice09186a0080092106.html'
p1255
aS'/c/en/us/products/collateral/routers/7200-series-routers/prod_end-of-life_notice0900aecd80712df5.html'
p1256
aS'/c/en/us/products/collateral/routers/7200-series-routers/prod_end-of-life_notice0900aecd806b8c96.html'
p1257
aS'/c/en/us/products/collateral/routers/7200-series-routers/prod_end-of-life_notice0900aecd8067dd9f.html'
p1258
aS'/c/en/us/products/collateral/routers/7200-series-routers/prod_end-of-life_notice0900aecd8067a439.html'
p1259
aS'/c/en/us/products/collateral/routers/7200-series-routers/prod_end-of-life_notice0900aecd80653d66.html'
p1260
aS'/c/en/us/products/collateral/routers/7200-series-routers/prod_end-of-life_notice0900aecd80627e5e.html'
p1261
aS'/c/en/us/products/collateral/routers/7200-series-routers/prod_end-of-life_notice0900aecd805aeb3f.html'
p1262
aS'/c/en/us/products/collateral/routers/7200-series-routers/prod_end-of-life_notice0900aecd8051a7c4.html'
p1263
aS'/c/en/us/products/collateral/routers/7200-series-routers/prod_end-of-life_notice0900aecd804a02df.html'
p1264
aS'/c/en/us/products/collateral/routers/7200-series-routers/prod_end-of-life_notice0900aecd802f91fd.html'
p1265
aS'/c/en/us/products/collateral/routers/7200-series-routers/prod_end-of-life_notice0900aecd802b652d.html'
p1266
aS'/c/en/us/products/collateral/routers/7200-series-routers/prod_end-of-life_notice0900aecd8029feb1.html'
p1267
aS'/c/en/us/products/collateral/routers/7200-series-routers/prod_end-of-life_notice0900aecd8020bacc.html'
p1268
aS'/c/en/us/products/collateral/routers/7200-series-routers/prod_end-of-life_notice0900aecd80205278.html'
p1269
aS'/c/en/us/products/collateral/routers/7200-series-routers/prod_end-of-life_notice0900aecd801dae46.html'
p1270
aS'/c/en/us/products/collateral/routers/7200-series-routers/prod_end-of-life_notice0900aecd801bd0f7.html'
p1271
aS'/c/en/us/products/collateral/routers/7200-series-routers/end_of_life_notice_c51-578052.html'
p1272
aS'/c/en/us/products/collateral/routers/7206-router/prod_end-of-life_notice09186a008032d592.html'
p1273
aS'/c/en/us/products/collateral/routers/7200-series-routers/end_of_life_notice_c51-501483.html'
p1274
aS'/c/en/us/products/collateral/routers/7200-series-routers/prod_end-of-life_notice0900aecd8067dd93.html'
p1275
aS'/c/en/us/products/collateral/routers/7200-series-routers/prod_end-of-life_notice0900aecd8049f19f.html'
p1276
aS'/c/en/us/products/collateral/routers/7200-series-routers/prod_end-of-life_notice0900aecd8049f17a.html'
p1277
aS'/c/en/us/products/collateral/routers/7200-series-routers/prod_end-of-life_notice0900aecd801e90af.html'
p1278
aS'/c/en/us/products/collateral/routers/asr-1000-series-aggregation-services-routers/eos-eol-notice-c51-737081.html'
p1279
aS'/c/en/us/products/collateral/routers/asr-1000-series-aggregation-services-routers/eos-eol-notice-c51-736752.html'
p1280
aS'/c/en/us/products/collateral/routers/asr-1000-series-aggregation-services-routers/eos-eol-notice-c51-736431.html'
p1281
aS'/c/en/us/products/collateral/routers/asr-1000-series-aggregation-services-routers/eos-eol-notice-c51-734572.html'
p1282
aS'/c/en/us/products/collateral/routers/asr-1000-series-aggregation-services-routers/eos-eol-notice-c51-735307.html'
p1283
aS'/c/en/us/products/collateral/routers/asr-1000-series-aggregation-services-routers/eos-eol-notice-c51-734263.html'
p1284
aS'/c/en/us/products/collateral/routers/asr-1000-series-aggregation-services-routers/eos-eol-notice-c51-734193.html'
p1285
aS'/c/en/us/products/collateral/routers/asr-1000-series-aggregation-services-routers/eos-eol-notice-c51-733479.html'
p1286
aS'/c/en/us/products/collateral/routers/asr-1000-series-aggregation-services-routers/eos-eol-notice-c51-732203.html'
p1287
aS'/c/en/us/products/collateral/routers/asr-1000-series-aggregation-services-routers/eos-eol-notice-c51-732167.html'
p1288
aS'/c/en/us/products/collateral/routers/asr-1000-series-aggregation-services-routers/eos-eol-notice-c51-730604.html'
p1289
aS'/c/en/us/products/collateral/routers/asr-1000-series-aggregation-services-routers/end_of_life_notice_c51-728847.html'
p1290
aS'/c/en/us/products/collateral/routers/asr-1000-series-aggregation-services-routers/end_of_life_notice_c51-728416.html'
p1291
aS'/c/en/us/products/collateral/routers/asr-1000-series-aggregation-services-routers/end_of_life_notice_c51-727629.html'
p1292
aS'/c/en/us/products/collateral/routers/asr-1000-series-aggregation-services-routers/end_of_life_notice_c51-722396.html'
p1293
aS'/c/en/us/products/collateral/routers/asr-1000-series-aggregation-services-routers/end_of_life_notice_c51-645778.html'
p1294
aS'/c/en/us/products/collateral/routers/asr-1000-series-aggregation-services-routers/end_of_life_notice_c51-585627.html'
p1295
aS'/c/en/us/products/collateral/routers/asr-1000-series-aggregation-services-routers/end_of_life_notice_c51-636700.html'
p1296
aS'/c/en/us/products/collateral/routers/asr-1000-series-aggregation-services-routers/end_of_life_notice_c51-717501.html'
p1297
aS'/c/en/us/products/collateral/routers/asr-1000-series-aggregation-services-routers/end_of_life_notice_c51-709635.html'
p1298
aS'/c/en/us/products/collateral/routers/asr-1000-series-aggregation-services-routers/end_of_life_notice_c51-708773.html'
p1299
aS'/c/en/us/products/collateral/routers/asr-1000-series-aggregation-services-routers/end_of_life_notice_c51-519525.html'
p1300
aS'/c/en/us/products/collateral/application-networking-services/wide-area-application-services-waas-software/end-of-life-notice-c51-729862.html'
p1301
aS'/c/en/us/products/collateral/application-networking-services/wide-area-application-services-waas-software/end_of_life_notice_c51-729231.html'
p1302
aS'/c/en/us/products/collateral/application-networking-services/wide-area-application-services-waas-software/end_of_life_notice_c51-729046.html'
p1303
aS'/c/en/us/products/collateral/application-networking-services/wide-area-application-services-waas-software/eos-eol-notice-c51-730604.html'
p1304
aS'/c/en/us/products/collateral/routers/asr-1000-series-aggregation-services-routers/eos-eol-notice-c51-737081-fr.html'
p1305
aS'/c/en/us/products/collateral/routers/asr-1000-series-aggregation-services-routers/eos-eol-notice-c51-736752-fr.html'
p1306
aS'/c/en/us/products/collateral/routers/asr-1000-series-aggregation-services-routers/eos-eol-notice-c51-736431-fr.html'
p1307
aS'/c/en/us/products/collateral/routers/asr-1000-series-aggregation-services-routers/eos-eol-notice-c51-735307-fr.html'
p1308
aS'/c/en/us/products/collateral/switches/catalyst-6500-series-switches/eos-eol-notice-c51-737192.html'
p1309
aS'/c/en/us/products/collateral/switches/catalyst-6500-series-switches/eos-eol-notice-c51-735926.html'
p1310
aS'/c/en/us/products/collateral/routers/7600-series-routers/prod_end-of-life_notice0900aecd803f00c3.html'
p1311
aS'/c/en/us/products/collateral/switches/mgx-8800-series-switches/end_of_life_notice_c51-729557.html'
p1312
aS'/c/en/us/products/collateral/switches/catalyst-6500-series-switches/eos-eol-notice-c51-734057.html'
p1313
aS'/c/en/us/products/collateral/switches/catalyst-6500-series-switches/eos-eol-notice-c51-733297.html'
p1314
aS'/c/en/us/products/collateral/switches/catalyst-6500-series-switches/prod_end-of-life_notice0900aecd8035ece4.html'
p1315
aS'/c/en/us/products/collateral/switches/catalyst-6500-series-switches/prod_end-of-life_notice09186a008023401e.html'
p1316
aS'/c/en/us/products/collateral/switches/catalyst-6500-series-switches/prod_end-of-life_notice0900aecd80699e1a.html'
p1317
aS'/c/en/us/products/collateral/switches/catalyst-6500-series-switches/prod_end-of-life_notice0900aecd80699ddb.html'
p1318
aS'/c/en/us/products/collateral/switches/catalyst-6500-series-switches/prod_end-of-life_notice0900aecd80565c60.html'
p1319
aS'/c/en/us/products/collateral/switches/catalyst-6500-series-switches/prod_end-of-life_notice0900aecd8054d461.html'
p1320
aS'/c/en/us/products/collateral/switches/catalyst-6500-series-switches/prod_end-of-life_notice0900aecd804e1180.html'
p1321
aS'/c/en/us/products/collateral/switches/catalyst-6500-series-switches/prod_end-of-life_notice0900aecd8046e4ae.html'
p1322
aS'/c/en/us/products/collateral/switches/catalyst-6500-series-switches/prod_end-of-life_notice0900aecd80423d311.html'
p1323
aS'/c/en/us/products/collateral/switches/catalyst-6500-series-switches/prod_end-of-life_notice0900aecd803e378d.html'
p1324
aS'/c/en/us/products/collateral/switches/catalyst-6500-series-switches/prod_end-of-life_notice0900aecd800fd91f.html'
p1325
aS'/c/en/us/products/collateral/switches/catalyst-6500-series-switches/prod_end-of-life_notice0900aecd801a8c6e.html'
p1326
aS'/c/en/us/products/collateral/switches/catalyst-6500-series-switches/prod_end-of-life_notice0900aecd806d9953.html'
p1327
aS'/c/en/us/products/collateral/switches/catalyst-6500-series-switches/prod_end-of-life_notice0900aecd806b9e49.html'
p1328
aS'/c/en/us/products/collateral/switches/catalyst-6500-series-switches/prod_end-of-life_notice0900aecd8069af87.html'
p1329
aS'/c/en/us/products/collateral/switches/catalyst-6500-series-switches/prod_end-of-life_notice0900aecd8067a132.html'
p1330
aS'/c/en/us/products/collateral/switches/catalyst-6500-series-switches/prod_end-of-life_notice0900aecd80646c15.html'
p1331
aS'/c/en/us/products/collateral/switches/catalyst-6500-series-switches/prod_end-of-life_notice0900aecd805f990d.html'
p1332
aS'/c/en/us/products/collateral/switches/catalyst-6500-series-switches/prod_end-of-life_notice0900aecd805eaa8d.html'
p1333
aS'/c/en/us/products/collateral/switches/catalyst-6500-series-switches/prod_end-of-life_notice0900aecd8042428a.html'
p1334
aS'/c/en/us/products/collateral/switches/catalyst-6500-series-switches/prod_end-of-life_notice0900aecd8039f961.html'
p1335
aS'/c/en/us/products/collateral/switches/catalyst-6500-series-switches/prod_end-of-life_notice0900aecd802e87bb.html'
p1336
aS'/c/en/us/products/collateral/switches/catalyst-6500-series-switches/prod_end-of-life_notice0900aecd802c2f7b.html'
p1337
aS'/c/en/us/products/collateral/switches/catalyst-6500-series-switches/prod_end-of-life_notice0900aecd8017a5d1.html'
p1338
aS'/c/en/us/products/collateral/switches/catalyst-4500-series-switches/prod_end-of-life_notice0900aecd8016fb77.html'
p1339
aS'/c/en/us/products/collateral/switches/catalyst-6500-series-switches/eos-eol-notice-c51-730610.html'
p1340
aS'/c/en/us/products/collateral/switches/mgx-8800-series-switches/eos-eol-notice-c51-730610.html'
p1341
aS'/c/en/us/products/collateral/switches/catalyst-6500-series-switches/prod_end-of-life_notice0900aecd80423d31.html'
p1342
aS'/c/en/us/products/collateral/switches/mgx-8800-series-switches/end-of-life-notice-c51-729742.html'
p1343
aS'/c/en/us/products/collateral/switches/mgx-8800-series-switches/end_of_life_notice_c51-729149.html'
p1344
aS'/c/en/us/products/collateral/switches/catalyst-6500-series-switches/prod_end-of-life_notice0900aecd80646c9c.html'
p1345
aS'/c/en/us/products/collateral/interfaces-modules/catalyst-6500-series-network-analysis-module-nam-3/eos-eol-notice-c51-731695.html'
p1346
aS'/c/en/us/products/collateral/switches/catalyst-6500-series-switches/eos-eol-notice-c51-737192-fr.html'
p1347
aS'/c/en/us/products/collateral/switches/catalyst-6500-series-switches/eos-eol-notice-c51-735926-fr.html'
p1348
a.